---
triple:          'arm64-apple-darwin'
binary-path:     library.so
relocations:
  - { offsetInCU: 0x3703, offset: 0x3703, size: 0x8, addend: 0x0, symName: __ZNSt3__1plB8ue170006IcNS_11char_traitsIcEENS_9allocatorIcEEEENS_12basic_stringIT_T0_T1_EEOS9_RKS9_, symObjAddr: 0x60C, symBinAddr: 0x4A4C, symSize: 0x40 }
  - { offsetInCU: 0x375B, offset: 0x375B, size: 0x8, addend: 0x0, symName: __ZNSt3__1plB8ue170006IcNS_11char_traitsIcEENS_9allocatorIcEEEENS_12basic_stringIT_T0_T1_EEOS9_PKS6_, symObjAddr: 0x64C, symBinAddr: 0x4A8C, symSize: 0x40 }
  - { offsetInCU: 0x37B3, offset: 0x37B3, size: 0x8, addend: 0x0, symName: __ZNSt3__1plB8ue170006IcNS_11char_traitsIcEENS_9allocatorIcEEEENS_12basic_stringIT_T0_T1_EEOS9_SA_, symObjAddr: 0x68C, symBinAddr: 0x4ACC, symSize: 0x40 }
  - { offsetInCU: 0x380B, offset: 0x380B, size: 0x8, addend: 0x0, symName: __ZNSt3__1plB8ue170006IcNS_11char_traitsIcEENS_9allocatorIcEEEENS_12basic_stringIT_T0_T1_EEPKS6_OS9_, symObjAddr: 0x6CC, symBinAddr: 0x4B0C, symSize: 0x44 }
  - { offsetInCU: 0x3863, offset: 0x3863, size: 0x8, addend: 0x0, symName: __ZNSt3__111make_uniqueB8ue170006I4CellJRKS1_EEENS_11__unique_ifIT_E15__unique_singleEDpOT0_, symObjAddr: 0x76C, symBinAddr: 0x4BAC, symSize: 0x6C }
  - { offsetInCU: 0x38A5, offset: 0x38A5, size: 0x8, addend: 0x0, symName: __ZNSt3__118__constexpr_strlenB8ue170006EPKc, symObjAddr: 0xB28, symBinAddr: 0x4F68, symSize: 0x24 }
  - { offsetInCU: 0x38D1, offset: 0x38D1, size: 0x8, addend: 0x0, symName: __ZNSt3__112__to_addressB8ue170006IKcEEPT_S3_, symObjAddr: 0xC90, symBinAddr: 0x50D0, symSize: 0x14 }
  - { offsetInCU: 0x5F57, offset: 0x5F57, size: 0x8, addend: 0x0, symName: __ZN4CellC2Eii, symObjAddr: 0x0, symBinAddr: 0x4440, symSize: 0x118 }
  - { offsetInCU: 0x5F9D, offset: 0x5F9D, size: 0x8, addend: 0x0, symName: __ZNSt3__112basic_stringIcNS_11char_traitsIcEENS_9allocatorIcEEEC1B8ue170006Ev, symObjAddr: 0x118, symBinAddr: 0x4558, symSize: 0x2C }
  - { offsetInCU: 0x5FC5, offset: 0x5FC5, size: 0x8, addend: 0x0, symName: __ZNSt16invalid_argumentC1B8ue170006EPKc, symObjAddr: 0x144, symBinAddr: 0x4584, symSize: 0x34 }
  - { offsetInCU: 0x5FFB, offset: 0x5FFB, size: 0x8, addend: 0x0, symName: __ZNSt3__112basic_stringIcNS_11char_traitsIcEENS_9allocatorIcEEEaSB8ue170006EPKc, symObjAddr: 0x178, symBinAddr: 0x45B8, symSize: 0x2C }
  - { offsetInCU: 0x602E, offset: 0x602E, size: 0x8, addend: 0x0, symName: __ZN4CellC1Eii, symObjAddr: 0x1A4, symBinAddr: 0x45E4, symSize: 0x3C }
  - { offsetInCU: 0x6074, offset: 0x6074, size: 0x8, addend: 0x0, symName: __ZN4CellD2Ev, symObjAddr: 0x1E0, symBinAddr: 0x4620, symSize: 0x40 }
  - { offsetInCU: 0x609E, offset: 0x609E, size: 0x8, addend: 0x0, symName: __ZN4CellD1Ev, symObjAddr: 0x220, symBinAddr: 0x4660, symSize: 0x2C }
  - { offsetInCU: 0x60C8, offset: 0x60C8, size: 0x8, addend: 0x0, symName: __ZN4CellD0Ev, symObjAddr: 0x24C, symBinAddr: 0x468C, symSize: 0x30 }
  - { offsetInCU: 0x60F2, offset: 0x60F2, size: 0x8, addend: 0x0, symName: __ZNK4CellixEc, symObjAddr: 0x27C, symBinAddr: 0x46BC, symSize: 0xD8 }
  - { offsetInCU: 0x6126, offset: 0x6126, size: 0x8, addend: 0x0, symName: __ZNK4Cell5get_xEv, symObjAddr: 0x354, symBinAddr: 0x4794, symSize: 0x18 }
  - { offsetInCU: 0x614C, offset: 0x614C, size: 0x8, addend: 0x0, symName: __ZNK4Cell5get_yEv, symObjAddr: 0x36C, symBinAddr: 0x47AC, symSize: 0x18 }
  - { offsetInCU: 0x6172, offset: 0x6172, size: 0x8, addend: 0x0, symName: __ZNK4Cell8get_typeEv, symObjAddr: 0x384, symBinAddr: 0x47C4, symSize: 0x3C }
  - { offsetInCU: 0x6198, offset: 0x6198, size: 0x8, addend: 0x0, symName: __ZNK4Cell15get_descriptionEv, symObjAddr: 0x3C0, symBinAddr: 0x4800, symSize: 0x3C }
  - { offsetInCU: 0x61C3, offset: 0x61C3, size: 0x8, addend: 0x0, symName: __ZNSt3__112basic_stringIcNS_11char_traitsIcEENS_9allocatorIcEEEC1B8ue170006ILi0EEEPKc, symObjAddr: 0x3FC, symBinAddr: 0x483C, symSize: 0x34 }
  - { offsetInCU: 0x6200, offset: 0x6200, size: 0x8, addend: 0x0, symName: __ZNK4Cell20get_description_testEv, symObjAddr: 0x430, symBinAddr: 0x4870, symSize: 0x1DC }
  - { offsetInCU: 0x6226, offset: 0x6226, size: 0x8, addend: 0x0, symName: __ZN4Cell8set_typeENSt3__112basic_stringIcNS0_11char_traitsIcEENS0_9allocatorIcEEEE, symObjAddr: 0x710, symBinAddr: 0x4B50, symSize: 0x30 }
  - { offsetInCU: 0x625B, offset: 0x625B, size: 0x8, addend: 0x0, symName: __ZNK4Cell4copyEv, symObjAddr: 0x740, symBinAddr: 0x4B80, symSize: 0x2C }
  - { offsetInCU: 0x6281, offset: 0x6281, size: 0x8, addend: 0x0, symName: _get_x, symObjAddr: 0x7D8, symBinAddr: 0x4C18, symSize: 0x24 }
  - { offsetInCU: 0x62A9, offset: 0x62A9, size: 0x8, addend: 0x0, symName: _get_y, symObjAddr: 0x7FC, symBinAddr: 0x4C3C, symSize: 0x24 }
  - { offsetInCU: 0x62D1, offset: 0x62D1, size: 0x8, addend: 0x0, symName: _get_type, symObjAddr: 0x820, symBinAddr: 0x4C60, symSize: 0x48 }
  - { offsetInCU: 0x62F9, offset: 0x62F9, size: 0x8, addend: 0x0, symName: __ZNKSt3__112basic_stringIcNS_11char_traitsIcEENS_9allocatorIcEEE5c_strB8ue170006Ev, symObjAddr: 0x868, symBinAddr: 0x4CA8, symSize: 0x24 }
  - { offsetInCU: 0x631D, offset: 0x631D, size: 0x8, addend: 0x0, symName: __ZNSt16invalid_argumentC2B8ue170006EPKc, symObjAddr: 0x88C, symBinAddr: 0x4CCC, symSize: 0x4C }
  - { offsetInCU: 0x6353, offset: 0x6353, size: 0x8, addend: 0x0, symName: __ZNSt3__112basic_stringIcNS_11char_traitsIcEENS_9allocatorIcEEEC2B8ue170006Ev, symObjAddr: 0x8D8, symBinAddr: 0x4D18, symSize: 0x48 }
  - { offsetInCU: 0x6380, offset: 0x6380, size: 0x8, addend: 0x0, symName: __ZNSt3__117__compressed_pairINS_12basic_stringIcNS_11char_traitsIcEENS_9allocatorIcEEE5__repES5_EC1B8ue170006INS_18__default_init_tagESA_EEOT_OT0_, symObjAddr: 0x920, symBinAddr: 0x4D60, symSize: 0x3C }
  - { offsetInCU: 0x63D6, offset: 0x63D6, size: 0x8, addend: 0x0, symName: __ZNSt3__112basic_stringIcNS_11char_traitsIcEENS_9allocatorIcEEE14__default_initB8ue170006Ev, symObjAddr: 0x968, symBinAddr: 0x4DA8, symSize: 0x40 }
  - { offsetInCU: 0x63FA, offset: 0x63FA, size: 0x8, addend: 0x0, symName: __ZNSt3__117__compressed_pairINS_12basic_stringIcNS_11char_traitsIcEENS_9allocatorIcEEE5__repES5_EC2B8ue170006INS_18__default_init_tagESA_EEOT_OT0_, symObjAddr: 0x9A8, symBinAddr: 0x4DE8, symSize: 0x3C }
  - { offsetInCU: 0x6450, offset: 0x6450, size: 0x8, addend: 0x0, symName: __ZNSt3__122__compressed_pair_elemINS_12basic_stringIcNS_11char_traitsIcEENS_9allocatorIcEEE5__repELi0ELb0EEC2B8ue170006ENS_18__default_init_tagE, symObjAddr: 0x9E4, symBinAddr: 0x4E24, symSize: 0x14 }
  - { offsetInCU: 0x6482, offset: 0x6482, size: 0x8, addend: 0x0, symName: __ZNSt3__122__compressed_pair_elemINS_9allocatorIcEELi1ELb1EEC2B8ue170006ENS_18__default_init_tagE, symObjAddr: 0x9F8, symBinAddr: 0x4E38, symSize: 0x2C }
  - { offsetInCU: 0x64B4, offset: 0x64B4, size: 0x8, addend: 0x0, symName: __ZNSt3__19allocatorIcEC2B8ue170006Ev, symObjAddr: 0xA24, symBinAddr: 0x4E64, symSize: 0x2C }
  - { offsetInCU: 0x64DC, offset: 0x64DC, size: 0x8, addend: 0x0, symName: __ZNSt3__116__non_trivial_ifILb1ENS_9allocatorIcEEEC2B8ue170006Ev, symObjAddr: 0xA50, symBinAddr: 0x4E90, symSize: 0x14 }
  - { offsetInCU: 0x6504, offset: 0x6504, size: 0x8, addend: 0x0, symName: __ZNSt3__117__compressed_pairINS_12basic_stringIcNS_11char_traitsIcEENS_9allocatorIcEEE5__repES5_E5firstB8ue170006Ev, symObjAddr: 0xA64, symBinAddr: 0x4EA4, symSize: 0x24 }
  - { offsetInCU: 0x6528, offset: 0x6528, size: 0x8, addend: 0x0, symName: __ZNSt3__122__compressed_pair_elemINS_12basic_stringIcNS_11char_traitsIcEENS_9allocatorIcEEE5__repELi0ELb0EE5__getB8ue170006Ev, symObjAddr: 0xA88, symBinAddr: 0x4EC8, symSize: 0x14 }
  - { offsetInCU: 0x654C, offset: 0x654C, size: 0x8, addend: 0x0, symName: __ZNSt3__112basic_stringIcNS_11char_traitsIcEENS_9allocatorIcEEEC2B8ue170006ILi0EEEPKc, symObjAddr: 0xA9C, symBinAddr: 0x4EDC, symSize: 0x58 }
  - { offsetInCU: 0x6589, offset: 0x6589, size: 0x8, addend: 0x0, symName: __ZNSt3__111char_traitsIcE6lengthB8ue170006EPKc, symObjAddr: 0xAF4, symBinAddr: 0x4F34, symSize: 0x34 }
  - { offsetInCU: 0x65AB, offset: 0x65AB, size: 0x8, addend: 0x0, symName: __ZNSt3__112basic_stringIcNS_11char_traitsIcEENS_9allocatorIcEEEC1B8ue170006EOS5_, symObjAddr: 0xB4C, symBinAddr: 0x4F8C, symSize: 0x34 }
  - { offsetInCU: 0x65E2, offset: 0x65E2, size: 0x8, addend: 0x0, symName: __ZNSt3__112basic_stringIcNS_11char_traitsIcEENS_9allocatorIcEEEC2B8ue170006EOS5_, symObjAddr: 0xB80, symBinAddr: 0x4FC0, symSize: 0x48 }
  - { offsetInCU: 0x6619, offset: 0x6619, size: 0x8, addend: 0x0, symName: __ZNSt3__112basic_stringIcNS_11char_traitsIcEENS_9allocatorIcEEE6appendB8ue170006ERKS5_, symObjAddr: 0xBC8, symBinAddr: 0x5008, symSize: 0x4C }
  - { offsetInCU: 0x664C, offset: 0x664C, size: 0x8, addend: 0x0, symName: __ZNKSt3__112basic_stringIcNS_11char_traitsIcEENS_9allocatorIcEEE4dataB8ue170006Ev, symObjAddr: 0xC14, symBinAddr: 0x5054, symSize: 0x28 }
  - { offsetInCU: 0x6670, offset: 0x6670, size: 0x8, addend: 0x0, symName: __ZNKSt3__112basic_stringIcNS_11char_traitsIcEENS_9allocatorIcEEE4sizeB8ue170006Ev, symObjAddr: 0xC3C, symBinAddr: 0x507C, symSize: 0x54 }
  - { offsetInCU: 0x6694, offset: 0x6694, size: 0x8, addend: 0x0, symName: __ZNKSt3__112basic_stringIcNS_11char_traitsIcEENS_9allocatorIcEEE13__get_pointerB8ue170006Ev, symObjAddr: 0xCA4, symBinAddr: 0x50E4, symSize: 0x54 }
  - { offsetInCU: 0x66B8, offset: 0x66B8, size: 0x8, addend: 0x0, symName: __ZNKSt3__112basic_stringIcNS_11char_traitsIcEENS_9allocatorIcEEE9__is_longB8ue170006Ev, symObjAddr: 0xCF8, symBinAddr: 0x5138, symSize: 0x38 }
  - { offsetInCU: 0x66DC, offset: 0x66DC, size: 0x8, addend: 0x0, symName: __ZNKSt3__112basic_stringIcNS_11char_traitsIcEENS_9allocatorIcEEE18__get_long_pointerB8ue170006Ev, symObjAddr: 0xD30, symBinAddr: 0x5170, symSize: 0x28 }
  - { offsetInCU: 0x6700, offset: 0x6700, size: 0x8, addend: 0x0, symName: __ZNKSt3__112basic_stringIcNS_11char_traitsIcEENS_9allocatorIcEEE19__get_short_pointerB8ue170006Ev, symObjAddr: 0xD58, symBinAddr: 0x5198, symSize: 0x28 }
  - { offsetInCU: 0x6724, offset: 0x6724, size: 0x8, addend: 0x0, symName: __ZNKSt3__117__compressed_pairINS_12basic_stringIcNS_11char_traitsIcEENS_9allocatorIcEEE5__repES5_E5firstB8ue170006Ev, symObjAddr: 0xD80, symBinAddr: 0x51C0, symSize: 0x24 }
  - { offsetInCU: 0x6748, offset: 0x6748, size: 0x8, addend: 0x0, symName: __ZNKSt3__122__compressed_pair_elemINS_12basic_stringIcNS_11char_traitsIcEENS_9allocatorIcEEE5__repELi0ELb0EE5__getB8ue170006Ev, symObjAddr: 0xDA4, symBinAddr: 0x51E4, symSize: 0x14 }
  - { offsetInCU: 0x676C, offset: 0x676C, size: 0x8, addend: 0x0, symName: __ZNSt3__114pointer_traitsIPKcE10pointer_toB8ue170006ERS1_, symObjAddr: 0xDB8, symBinAddr: 0x51F8, symSize: 0x14 }
  - { offsetInCU: 0x678E, offset: 0x678E, size: 0x8, addend: 0x0, symName: __ZNKSt3__112basic_stringIcNS_11char_traitsIcEENS_9allocatorIcEEE15__get_long_sizeB8ue170006Ev, symObjAddr: 0xDCC, symBinAddr: 0x520C, symSize: 0x28 }
  - { offsetInCU: 0x67B2, offset: 0x67B2, size: 0x8, addend: 0x0, symName: __ZNKSt3__112basic_stringIcNS_11char_traitsIcEENS_9allocatorIcEEE16__get_short_sizeB8ue170006Ev, symObjAddr: 0xDF4, symBinAddr: 0x5234, symSize: 0x34 }
  - { offsetInCU: 0x67DB, offset: 0x67DB, size: 0x8, addend: 0x0, symName: __ZN4CellC1ERKS_, symObjAddr: 0xE28, symBinAddr: 0x5268, symSize: 0x34 }
  - { offsetInCU: 0x680D, offset: 0x680D, size: 0x8, addend: 0x0, symName: __ZNSt3__110unique_ptrI4CellNS_14default_deleteIS1_EEEC1B8ue170006ILb1EvEEPS1_, symObjAddr: 0xE5C, symBinAddr: 0x529C, symSize: 0x34 }
  - { offsetInCU: 0x684E, offset: 0x684E, size: 0x8, addend: 0x0, symName: __ZN4CellC2ERKS_, symObjAddr: 0xE90, symBinAddr: 0x52D0, symSize: 0x58 }
  - { offsetInCU: 0x6880, offset: 0x6880, size: 0x8, addend: 0x0, symName: __ZNSt3__110unique_ptrI4CellNS_14default_deleteIS1_EEEC2B8ue170006ILb1EvEEPS1_, symObjAddr: 0xEE8, symBinAddr: 0x5328, symSize: 0x44 }
  - { offsetInCU: 0x68C6, offset: 0x68C6, size: 0x8, addend: 0x0, symName: __ZNSt3__117__compressed_pairIP4CellNS_14default_deleteIS1_EEEC1B8ue170006IRS2_NS_16__value_init_tagEEEOT_OT0_, symObjAddr: 0xF2C, symBinAddr: 0x536C, symSize: 0x3C }
  - { offsetInCU: 0x691C, offset: 0x691C, size: 0x8, addend: 0x0, symName: __ZNSt3__117__compressed_pairIP4CellNS_14default_deleteIS1_EEEC2B8ue170006IRS2_NS_16__value_init_tagEEEOT_OT0_, symObjAddr: 0xF68, symBinAddr: 0x53A8, symSize: 0x40 }
  - { offsetInCU: 0x6972, offset: 0x6972, size: 0x8, addend: 0x0, symName: __ZNSt3__122__compressed_pair_elemIP4CellLi0ELb0EEC2B8ue170006IRS2_vEEOT_, symObjAddr: 0xFA8, symBinAddr: 0x53E8, symSize: 0x24 }
  - { offsetInCU: 0x69B2, offset: 0x69B2, size: 0x8, addend: 0x0, symName: __ZNSt3__122__compressed_pair_elemINS_14default_deleteI4CellEELi1ELb1EEC2B8ue170006ENS_16__value_init_tagE, symObjAddr: 0xFCC, symBinAddr: 0x540C, symSize: 0x14 }
  - { offsetInCU: 0x3111, offset: 0x9B27, size: 0x8, addend: 0x0, symName: __ZNSt3__111make_uniqueB8ue170006I9WaterCellJRKS1_EEENS_11__unique_ifIT_E15__unique_singleEDpOT0_, symObjAddr: 0x5F0, symBinAddr: 0x597C, symSize: 0x6C }
  - { offsetInCU: 0x5422, offset: 0xBE38, size: 0x8, addend: 0x0, symName: __ZN9WaterCellC2Eiifff, symObjAddr: 0x0, symBinAddr: 0x5420, symSize: 0x16C }
  - { offsetInCU: 0x5497, offset: 0xBEAD, size: 0x8, addend: 0x0, symName: __ZN9WaterCellC1Eiifff, symObjAddr: 0x200, symBinAddr: 0x558C, symSize: 0x54 }
  - { offsetInCU: 0x5507, offset: 0xBF1D, size: 0x8, addend: 0x0, symName: __ZN9WaterCellixEc, symObjAddr: 0x254, symBinAddr: 0x55E0, symSize: 0xF4 }
  - { offsetInCU: 0x553B, offset: 0xBF51, size: 0x8, addend: 0x0, symName: __ZNK9WaterCellixEc, symObjAddr: 0x348, symBinAddr: 0x56D4, symSize: 0x110 }
  - { offsetInCU: 0x556F, offset: 0xBF85, size: 0x8, addend: 0x0, symName: __ZN9WaterCell5get_uEv, symObjAddr: 0x480, symBinAddr: 0x580C, symSize: 0x18 }
  - { offsetInCU: 0x5595, offset: 0xBFAB, size: 0x8, addend: 0x0, symName: __ZN9WaterCell5get_vEv, symObjAddr: 0x498, symBinAddr: 0x5824, symSize: 0x18 }
  - { offsetInCU: 0x55BB, offset: 0xBFD1, size: 0x8, addend: 0x0, symName: __ZN9WaterCell5get_pEv, symObjAddr: 0x4B0, symBinAddr: 0x583C, symSize: 0x18 }
  - { offsetInCU: 0x55E1, offset: 0xBFF7, size: 0x8, addend: 0x0, symName: __ZN9WaterCell5set_uEf, symObjAddr: 0x4C8, symBinAddr: 0x5854, symSize: 0x20 }
  - { offsetInCU: 0x5615, offset: 0xC02B, size: 0x8, addend: 0x0, symName: __ZN9WaterCell5set_vEf, symObjAddr: 0x4E8, symBinAddr: 0x5874, symSize: 0x20 }
  - { offsetInCU: 0x5649, offset: 0xC05F, size: 0x8, addend: 0x0, symName: __ZN9WaterCell5set_pEf, symObjAddr: 0x508, symBinAddr: 0x5894, symSize: 0xA0 }
  - { offsetInCU: 0x567D, offset: 0xC093, size: 0x8, addend: 0x0, symName: __ZNK9WaterCell4copyEv, symObjAddr: 0x5A8, symBinAddr: 0x5934, symSize: 0x48 }
  - { offsetInCU: 0x56A3, offset: 0xC0B9, size: 0x8, addend: 0x0, symName: __ZNSt3__110unique_ptrI4CellNS_14default_deleteIS1_EEEC1B8ue170006I9WaterCellNS2_IS6_EEvvEEONS0_IT_T0_EE, symObjAddr: 0x65C, symBinAddr: 0x59E8, symSize: 0x34 }
  - { offsetInCU: 0x56ED, offset: 0xC103, size: 0x8, addend: 0x0, symName: __ZNSt3__110unique_ptrI9WaterCellNS_14default_deleteIS1_EEED1B8ue170006Ev, symObjAddr: 0x690, symBinAddr: 0x5A1C, symSize: 0x2C }
  - { offsetInCU: 0x5715, offset: 0xC12B, size: 0x8, addend: 0x0, symName: __ZNK9WaterCell15get_descriptionEv, symObjAddr: 0x6BC, symBinAddr: 0x5A48, symSize: 0x1C0 }
  - { offsetInCU: 0x573B, offset: 0xC151, size: 0x8, addend: 0x0, symName: _get_u, symObjAddr: 0x87C, symBinAddr: 0x5C08, symSize: 0x24 }
  - { offsetInCU: 0x5763, offset: 0xC179, size: 0x8, addend: 0x0, symName: _get_v, symObjAddr: 0x8A0, symBinAddr: 0x5C2C, symSize: 0x24 }
  - { offsetInCU: 0x578B, offset: 0xC1A1, size: 0x8, addend: 0x0, symName: _get_p, symObjAddr: 0x8C4, symBinAddr: 0x5C50, symSize: 0x24 }
  - { offsetInCU: 0x57B3, offset: 0xC1C9, size: 0x8, addend: 0x0, symName: __ZN9WaterCellD1Ev, symObjAddr: 0x8E8, symBinAddr: 0x5C74, symSize: 0x2C }
  - { offsetInCU: 0x57DD, offset: 0xC1F3, size: 0x8, addend: 0x0, symName: __ZN9WaterCellD0Ev, symObjAddr: 0x914, symBinAddr: 0x5CA0, symSize: 0x30 }
  - { offsetInCU: 0x5807, offset: 0xC21D, size: 0x8, addend: 0x0, symName: __ZN9WaterCellD2Ev, symObjAddr: 0x990, symBinAddr: 0x5CD0, symSize: 0x48 }
  - { offsetInCU: 0x5836, offset: 0xC24C, size: 0x8, addend: 0x0, symName: __ZN9WaterCellC1ERKS_, symObjAddr: 0xC4C, symBinAddr: 0x5D18, symSize: 0x34 }
  - { offsetInCU: 0x5868, offset: 0xC27E, size: 0x8, addend: 0x0, symName: __ZNSt3__110unique_ptrI9WaterCellNS_14default_deleteIS1_EEEC1B8ue170006ILb1EvEEPS1_, symObjAddr: 0xC80, symBinAddr: 0x5D4C, symSize: 0x34 }
  - { offsetInCU: 0x58A9, offset: 0xC2BF, size: 0x8, addend: 0x0, symName: __ZN9WaterCellC2ERKS_, symObjAddr: 0xCB4, symBinAddr: 0x5D80, symSize: 0x9C }
  - { offsetInCU: 0x58E0, offset: 0xC2F6, size: 0x8, addend: 0x0, symName: __ZNSt3__110unique_ptrI9WaterCellNS_14default_deleteIS1_EEEC2B8ue170006ILb1EvEEPS1_, symObjAddr: 0xDA8, symBinAddr: 0x5E1C, symSize: 0x44 }
  - { offsetInCU: 0x5926, offset: 0xC33C, size: 0x8, addend: 0x0, symName: __ZNSt3__117__compressed_pairIP9WaterCellNS_14default_deleteIS1_EEEC1B8ue170006IRS2_NS_16__value_init_tagEEEOT_OT0_, symObjAddr: 0xDEC, symBinAddr: 0x5E60, symSize: 0x3C }
  - { offsetInCU: 0x597C, offset: 0xC392, size: 0x8, addend: 0x0, symName: __ZNSt3__117__compressed_pairIP9WaterCellNS_14default_deleteIS1_EEEC2B8ue170006IRS2_NS_16__value_init_tagEEEOT_OT0_, symObjAddr: 0xE28, symBinAddr: 0x5E9C, symSize: 0x40 }
  - { offsetInCU: 0x59D2, offset: 0xC3E8, size: 0x8, addend: 0x0, symName: __ZNSt3__122__compressed_pair_elemIP9WaterCellLi0ELb0EEC2B8ue170006IRS2_vEEOT_, symObjAddr: 0xE68, symBinAddr: 0x5EDC, symSize: 0x24 }
  - { offsetInCU: 0x5A12, offset: 0xC428, size: 0x8, addend: 0x0, symName: __ZNSt3__122__compressed_pair_elemINS_14default_deleteI9WaterCellEELi1ELb1EEC2B8ue170006ENS_16__value_init_tagE, symObjAddr: 0xE8C, symBinAddr: 0x5F00, symSize: 0x14 }
  - { offsetInCU: 0x5A44, offset: 0xC45A, size: 0x8, addend: 0x0, symName: __ZNSt3__110unique_ptrI9WaterCellNS_14default_deleteIS1_EEED2B8ue170006Ev, symObjAddr: 0xEA0, symBinAddr: 0x5F14, symSize: 0x30 }
  - { offsetInCU: 0x5A6C, offset: 0xC482, size: 0x8, addend: 0x0, symName: __ZNSt3__110unique_ptrI9WaterCellNS_14default_deleteIS1_EEE5resetB8ue170006EPS1_, symObjAddr: 0xED0, symBinAddr: 0x5F44, symSize: 0x78 }
  - { offsetInCU: 0x5AAE, offset: 0xC4C4, size: 0x8, addend: 0x0, symName: __ZNSt3__117__compressed_pairIP9WaterCellNS_14default_deleteIS1_EEE5firstB8ue170006Ev, symObjAddr: 0xF48, symBinAddr: 0x5FBC, symSize: 0x24 }
  - { offsetInCU: 0x5AD2, offset: 0xC4E8, size: 0x8, addend: 0x0, symName: __ZNSt3__117__compressed_pairIP9WaterCellNS_14default_deleteIS1_EEE6secondB8ue170006Ev, symObjAddr: 0xF6C, symBinAddr: 0x5FE0, symSize: 0x24 }
  - { offsetInCU: 0x5AF6, offset: 0xC50C, size: 0x8, addend: 0x0, symName: __ZNKSt3__114default_deleteI9WaterCellEclB8ue170006EPS1_, symObjAddr: 0xF90, symBinAddr: 0x6004, symSize: 0x4C }
  - { offsetInCU: 0x5B28, offset: 0xC53E, size: 0x8, addend: 0x0, symName: __ZNSt3__122__compressed_pair_elemIP9WaterCellLi0ELb0EE5__getB8ue170006Ev, symObjAddr: 0xFDC, symBinAddr: 0x6050, symSize: 0x14 }
  - { offsetInCU: 0x5B4C, offset: 0xC562, size: 0x8, addend: 0x0, symName: __ZNSt3__122__compressed_pair_elemINS_14default_deleteI9WaterCellEELi1ELb1EE5__getB8ue170006Ev, symObjAddr: 0xFF0, symBinAddr: 0x6064, symSize: 0x14 }
  - { offsetInCU: 0x5B70, offset: 0xC586, size: 0x8, addend: 0x0, symName: __ZNSt3__110unique_ptrI4CellNS_14default_deleteIS1_EEEC2B8ue170006I9WaterCellNS2_IS6_EEvvEEONS0_IT_T0_EE, symObjAddr: 0x1004, symBinAddr: 0x6078, symSize: 0x60 }
  - { offsetInCU: 0x5BBA, offset: 0xC5D0, size: 0x8, addend: 0x0, symName: __ZNSt3__110unique_ptrI9WaterCellNS_14default_deleteIS1_EEE7releaseB8ue170006Ev, symObjAddr: 0x1064, symBinAddr: 0x60D8, symSize: 0x44 }
  - { offsetInCU: 0x5BED, offset: 0xC603, size: 0x8, addend: 0x0, symName: __ZNSt3__110unique_ptrI9WaterCellNS_14default_deleteIS1_EEE11get_deleterB8ue170006Ev, symObjAddr: 0x10A8, symBinAddr: 0x611C, symSize: 0x24 }
  - { offsetInCU: 0x5C1B, offset: 0xC631, size: 0x8, addend: 0x0, symName: __ZNSt3__117__compressed_pairIP4CellNS_14default_deleteIS1_EEEC1B8ue170006IP9WaterCellNS3_IS7_EEEEOT_OT0_, symObjAddr: 0x10CC, symBinAddr: 0x6140, symSize: 0x3C }
  - { offsetInCU: 0x5C71, offset: 0xC687, size: 0x8, addend: 0x0, symName: __ZNSt3__117__compressed_pairIP4CellNS_14default_deleteIS1_EEEC2B8ue170006IP9WaterCellNS3_IS7_EEEEOT_OT0_, symObjAddr: 0x1108, symBinAddr: 0x617C, symSize: 0x44 }
  - { offsetInCU: 0x5CC7, offset: 0xC6DD, size: 0x8, addend: 0x0, symName: __ZNSt3__122__compressed_pair_elemIP4CellLi0ELb0EEC2B8ue170006IP9WaterCellvEEOT_, symObjAddr: 0x114C, symBinAddr: 0x61C0, symSize: 0x24 }
  - { offsetInCU: 0x5D07, offset: 0xC71D, size: 0x8, addend: 0x0, symName: __ZNSt3__122__compressed_pair_elemINS_14default_deleteI4CellEELi1ELb1EEC2B8ue170006INS1_I9WaterCellEEvEEOT_, symObjAddr: 0x1170, symBinAddr: 0x61E4, symSize: 0x38 }
  - { offsetInCU: 0x5D4C, offset: 0xC762, size: 0x8, addend: 0x0, symName: __ZNSt3__114default_deleteI4CellEC2B8ue170006I9WaterCellEERKNS0_IT_EEPNS_9enable_ifIXsr14is_convertibleIPS5_PS1_EE5valueEvE4typeE, symObjAddr: 0x11A8, symBinAddr: 0x621C, symSize: 0x1C }
  - { offsetInCU: 0x48E2, offset: 0x110A2, size: 0x8, addend: 0x0, symName: __ZN8WallCellC2Eii, symObjAddr: 0x0, symBinAddr: 0x6238, symSize: 0xA8 }
  - { offsetInCU: 0x4928, offset: 0x110E8, size: 0x8, addend: 0x0, symName: __ZN8WallCellC1Eii, symObjAddr: 0x100, symBinAddr: 0x62E0, symSize: 0x3C }
  - { offsetInCU: 0x496E, offset: 0x1112E, size: 0x8, addend: 0x0, symName: __ZNK8WallCellixEc, symObjAddr: 0x13C, symBinAddr: 0x631C, symSize: 0xD8 }
  - { offsetInCU: 0x49A2, offset: 0x11162, size: 0x8, addend: 0x0, symName: __ZN8WallCellD1Ev, symObjAddr: 0x248, symBinAddr: 0x63F4, symSize: 0x2C }
  - { offsetInCU: 0x49CC, offset: 0x1118C, size: 0x8, addend: 0x0, symName: __ZN8WallCellD0Ev, symObjAddr: 0x274, symBinAddr: 0x6420, symSize: 0x30 }
  - { offsetInCU: 0x49F6, offset: 0x111B6, size: 0x8, addend: 0x0, symName: __ZN8WallCellD2Ev, symObjAddr: 0x4B4, symBinAddr: 0x6450, symSize: 0x48 }
  - { offsetInCU: 0x3111, offset: 0x142FB, size: 0x8, addend: 0x0, symName: __ZNSt3__111make_uniqueB8ue170006I14StaticWallCellJRKS1_EEENS_11__unique_ifIT_E15__unique_singleEDpOT0_, symObjAddr: 0x200, symBinAddr: 0x65F0, symSize: 0x6C }
  - { offsetInCU: 0x5399, offset: 0x16583, size: 0x8, addend: 0x0, symName: __ZN14StaticWallCellC2Eii, symObjAddr: 0x0, symBinAddr: 0x6498, symSize: 0xD4 }
  - { offsetInCU: 0x53E4, offset: 0x165CE, size: 0x8, addend: 0x0, symName: __ZN14StaticWallCellC1Eii, symObjAddr: 0x17C, symBinAddr: 0x656C, symSize: 0x3C }
  - { offsetInCU: 0x542A, offset: 0x16614, size: 0x8, addend: 0x0, symName: __ZNK14StaticWallCell4copyEv, symObjAddr: 0x1B8, symBinAddr: 0x65A8, symSize: 0x48 }
  - { offsetInCU: 0x5450, offset: 0x1663A, size: 0x8, addend: 0x0, symName: __ZNSt3__110unique_ptrI4CellNS_14default_deleteIS1_EEEC1B8ue170006I14StaticWallCellNS2_IS6_EEvvEEONS0_IT_T0_EE, symObjAddr: 0x26C, symBinAddr: 0x665C, symSize: 0x34 }
  - { offsetInCU: 0x549A, offset: 0x16684, size: 0x8, addend: 0x0, symName: __ZNSt3__110unique_ptrI14StaticWallCellNS_14default_deleteIS1_EEED1B8ue170006Ev, symObjAddr: 0x2A0, symBinAddr: 0x6690, symSize: 0x2C }
  - { offsetInCU: 0x54C2, offset: 0x166AC, size: 0x8, addend: 0x0, symName: __ZNK14StaticWallCell15get_descriptionEv, symObjAddr: 0x2CC, symBinAddr: 0x66BC, symSize: 0x3C }
  - { offsetInCU: 0x54E8, offset: 0x166D2, size: 0x8, addend: 0x0, symName: __ZN14StaticWallCellD1Ev, symObjAddr: 0x308, symBinAddr: 0x66F8, symSize: 0x2C }
  - { offsetInCU: 0x5512, offset: 0x166FC, size: 0x8, addend: 0x0, symName: __ZN14StaticWallCellD0Ev, symObjAddr: 0x334, symBinAddr: 0x6724, symSize: 0x30 }
  - { offsetInCU: 0x553C, offset: 0x16726, size: 0x8, addend: 0x0, symName: __ZN14StaticWallCellD2Ev, symObjAddr: 0x3C0, symBinAddr: 0x6754, symSize: 0x48 }
  - { offsetInCU: 0x556B, offset: 0x16755, size: 0x8, addend: 0x0, symName: __ZN14StaticWallCellC1ERKS_, symObjAddr: 0x67C, symBinAddr: 0x679C, symSize: 0x34 }
  - { offsetInCU: 0x559D, offset: 0x16787, size: 0x8, addend: 0x0, symName: __ZNSt3__110unique_ptrI14StaticWallCellNS_14default_deleteIS1_EEEC1B8ue170006ILb1EvEEPS1_, symObjAddr: 0x6B0, symBinAddr: 0x67D0, symSize: 0x34 }
  - { offsetInCU: 0x55DE, offset: 0x167C8, size: 0x8, addend: 0x0, symName: __ZN14StaticWallCellC2ERKS_, symObjAddr: 0x6E4, symBinAddr: 0x6804, symSize: 0x88 }
  - { offsetInCU: 0x5615, offset: 0x167FF, size: 0x8, addend: 0x0, symName: __ZN8WallCellC2ERKS_, symObjAddr: 0x76C, symBinAddr: 0x688C, symSize: 0x88 }
  - { offsetInCU: 0x564C, offset: 0x16836, size: 0x8, addend: 0x0, symName: __ZNSt3__110unique_ptrI14StaticWallCellNS_14default_deleteIS1_EEEC2B8ue170006ILb1EvEEPS1_, symObjAddr: 0x84C, symBinAddr: 0x6914, symSize: 0x44 }
  - { offsetInCU: 0x5692, offset: 0x1687C, size: 0x8, addend: 0x0, symName: __ZNSt3__117__compressed_pairIP14StaticWallCellNS_14default_deleteIS1_EEEC1B8ue170006IRS2_NS_16__value_init_tagEEEOT_OT0_, symObjAddr: 0x890, symBinAddr: 0x6958, symSize: 0x3C }
  - { offsetInCU: 0x56E8, offset: 0x168D2, size: 0x8, addend: 0x0, symName: __ZNSt3__117__compressed_pairIP14StaticWallCellNS_14default_deleteIS1_EEEC2B8ue170006IRS2_NS_16__value_init_tagEEEOT_OT0_, symObjAddr: 0x8CC, symBinAddr: 0x6994, symSize: 0x40 }
  - { offsetInCU: 0x573E, offset: 0x16928, size: 0x8, addend: 0x0, symName: __ZNSt3__122__compressed_pair_elemIP14StaticWallCellLi0ELb0EEC2B8ue170006IRS2_vEEOT_, symObjAddr: 0x90C, symBinAddr: 0x69D4, symSize: 0x24 }
  - { offsetInCU: 0x577E, offset: 0x16968, size: 0x8, addend: 0x0, symName: __ZNSt3__122__compressed_pair_elemINS_14default_deleteI14StaticWallCellEELi1ELb1EEC2B8ue170006ENS_16__value_init_tagE, symObjAddr: 0x930, symBinAddr: 0x69F8, symSize: 0x14 }
  - { offsetInCU: 0x57B0, offset: 0x1699A, size: 0x8, addend: 0x0, symName: __ZNSt3__110unique_ptrI14StaticWallCellNS_14default_deleteIS1_EEED2B8ue170006Ev, symObjAddr: 0x944, symBinAddr: 0x6A0C, symSize: 0x30 }
  - { offsetInCU: 0x57D8, offset: 0x169C2, size: 0x8, addend: 0x0, symName: __ZNSt3__110unique_ptrI14StaticWallCellNS_14default_deleteIS1_EEE5resetB8ue170006EPS1_, symObjAddr: 0x974, symBinAddr: 0x6A3C, symSize: 0x78 }
  - { offsetInCU: 0x581A, offset: 0x16A04, size: 0x8, addend: 0x0, symName: __ZNSt3__117__compressed_pairIP14StaticWallCellNS_14default_deleteIS1_EEE5firstB8ue170006Ev, symObjAddr: 0x9EC, symBinAddr: 0x6AB4, symSize: 0x24 }
  - { offsetInCU: 0x583E, offset: 0x16A28, size: 0x8, addend: 0x0, symName: __ZNSt3__117__compressed_pairIP14StaticWallCellNS_14default_deleteIS1_EEE6secondB8ue170006Ev, symObjAddr: 0xA10, symBinAddr: 0x6AD8, symSize: 0x24 }
  - { offsetInCU: 0x5862, offset: 0x16A4C, size: 0x8, addend: 0x0, symName: __ZNKSt3__114default_deleteI14StaticWallCellEclB8ue170006EPS1_, symObjAddr: 0xA34, symBinAddr: 0x6AFC, symSize: 0x4C }
  - { offsetInCU: 0x5894, offset: 0x16A7E, size: 0x8, addend: 0x0, symName: __ZNSt3__122__compressed_pair_elemIP14StaticWallCellLi0ELb0EE5__getB8ue170006Ev, symObjAddr: 0xA80, symBinAddr: 0x6B48, symSize: 0x14 }
  - { offsetInCU: 0x58B8, offset: 0x16AA2, size: 0x8, addend: 0x0, symName: __ZNSt3__122__compressed_pair_elemINS_14default_deleteI14StaticWallCellEELi1ELb1EE5__getB8ue170006Ev, symObjAddr: 0xA94, symBinAddr: 0x6B5C, symSize: 0x14 }
  - { offsetInCU: 0x58DC, offset: 0x16AC6, size: 0x8, addend: 0x0, symName: __ZNSt3__110unique_ptrI4CellNS_14default_deleteIS1_EEEC2B8ue170006I14StaticWallCellNS2_IS6_EEvvEEONS0_IT_T0_EE, symObjAddr: 0xAA8, symBinAddr: 0x6B70, symSize: 0x60 }
  - { offsetInCU: 0x5926, offset: 0x16B10, size: 0x8, addend: 0x0, symName: __ZNSt3__110unique_ptrI14StaticWallCellNS_14default_deleteIS1_EEE7releaseB8ue170006Ev, symObjAddr: 0xB08, symBinAddr: 0x6BD0, symSize: 0x44 }
  - { offsetInCU: 0x5959, offset: 0x16B43, size: 0x8, addend: 0x0, symName: __ZNSt3__110unique_ptrI14StaticWallCellNS_14default_deleteIS1_EEE11get_deleterB8ue170006Ev, symObjAddr: 0xB4C, symBinAddr: 0x6C14, symSize: 0x24 }
  - { offsetInCU: 0x5987, offset: 0x16B71, size: 0x8, addend: 0x0, symName: __ZNSt3__117__compressed_pairIP4CellNS_14default_deleteIS1_EEEC1B8ue170006IP14StaticWallCellNS3_IS7_EEEEOT_OT0_, symObjAddr: 0xB70, symBinAddr: 0x6C38, symSize: 0x3C }
  - { offsetInCU: 0x59DD, offset: 0x16BC7, size: 0x8, addend: 0x0, symName: __ZNSt3__117__compressed_pairIP4CellNS_14default_deleteIS1_EEEC2B8ue170006IP14StaticWallCellNS3_IS7_EEEEOT_OT0_, symObjAddr: 0xBAC, symBinAddr: 0x6C74, symSize: 0x44 }
  - { offsetInCU: 0x5A33, offset: 0x16C1D, size: 0x8, addend: 0x0, symName: __ZNSt3__122__compressed_pair_elemIP4CellLi0ELb0EEC2B8ue170006IP14StaticWallCellvEEOT_, symObjAddr: 0xBF0, symBinAddr: 0x6CB8, symSize: 0x24 }
  - { offsetInCU: 0x5A73, offset: 0x16C5D, size: 0x8, addend: 0x0, symName: __ZNSt3__122__compressed_pair_elemINS_14default_deleteI4CellEELi1ELb1EEC2B8ue170006INS1_I14StaticWallCellEEvEEOT_, symObjAddr: 0xC14, symBinAddr: 0x6CDC, symSize: 0x38 }
  - { offsetInCU: 0x5AB8, offset: 0x16CA2, size: 0x8, addend: 0x0, symName: __ZNSt3__114default_deleteI4CellEC2B8ue170006I14StaticWallCellEERKNS0_IT_EEPNS_9enable_ifIXsr14is_convertibleIPS5_PS1_EE5valueEvE4typeE, symObjAddr: 0xC4C, symBinAddr: 0x6D14, symSize: 0x1C }
  - { offsetInCU: 0x312D, offset: 0x19E32, size: 0x8, addend: 0x0, symName: __ZNSt3__111make_uniqueB8ue170006I14MovingWallCellJRKS1_EEENS_11__unique_ifIT_E15__unique_singleEDpOT0_, symObjAddr: 0x4F0, symBinAddr: 0x7144, symSize: 0x6C }
  - { offsetInCU: 0x55BC, offset: 0x1C2C1, size: 0x8, addend: 0x0, symName: __ZN14MovingWallCellC2Eiiff, symObjAddr: 0x0, symBinAddr: 0x6D30, symSize: 0xF0 }
  - { offsetInCU: 0x5623, offset: 0x1C328, size: 0x8, addend: 0x0, symName: __ZN14MovingWallCellC1Eiiff, symObjAddr: 0x198, symBinAddr: 0x6E20, symSize: 0x4C }
  - { offsetInCU: 0x5685, offset: 0x1C38A, size: 0x8, addend: 0x0, symName: __ZN14MovingWallCellixEc, symObjAddr: 0x1E4, symBinAddr: 0x6E6C, symSize: 0xD0 }
  - { offsetInCU: 0x56B9, offset: 0x1C3BE, size: 0x8, addend: 0x0, symName: __ZNK14MovingWallCellixEc, symObjAddr: 0x2E8, symBinAddr: 0x6F3C, symSize: 0x100 }
  - { offsetInCU: 0x56ED, offset: 0x1C3F2, size: 0x8, addend: 0x0, symName: __ZN14MovingWallCell5get_uEv, symObjAddr: 0x3FC, symBinAddr: 0x7050, symSize: 0x18 }
  - { offsetInCU: 0x5713, offset: 0x1C418, size: 0x8, addend: 0x0, symName: __ZN14MovingWallCell5get_vEv, symObjAddr: 0x414, symBinAddr: 0x7068, symSize: 0x18 }
  - { offsetInCU: 0x5739, offset: 0x1C43E, size: 0x8, addend: 0x0, symName: __ZN14MovingWallCell5set_uEf, symObjAddr: 0x42C, symBinAddr: 0x7080, symSize: 0x20 }
  - { offsetInCU: 0x576D, offset: 0x1C472, size: 0x8, addend: 0x0, symName: __ZN14MovingWallCell5set_vEf, symObjAddr: 0x44C, symBinAddr: 0x70A0, symSize: 0x20 }
  - { offsetInCU: 0x57A1, offset: 0x1C4A6, size: 0x8, addend: 0x0, symName: __ZNK14MovingWallCell15get_descriptionEv, symObjAddr: 0x46C, symBinAddr: 0x70C0, symSize: 0x3C }
  - { offsetInCU: 0x57C7, offset: 0x1C4CC, size: 0x8, addend: 0x0, symName: __ZNK14MovingWallCell4copyEv, symObjAddr: 0x4A8, symBinAddr: 0x70FC, symSize: 0x48 }
  - { offsetInCU: 0x57ED, offset: 0x1C4F2, size: 0x8, addend: 0x0, symName: __ZNSt3__110unique_ptrI4CellNS_14default_deleteIS1_EEEC1B8ue170006I14MovingWallCellNS2_IS6_EEvvEEONS0_IT_T0_EE, symObjAddr: 0x55C, symBinAddr: 0x71B0, symSize: 0x34 }
  - { offsetInCU: 0x5837, offset: 0x1C53C, size: 0x8, addend: 0x0, symName: __ZNSt3__110unique_ptrI14MovingWallCellNS_14default_deleteIS1_EEED1B8ue170006Ev, symObjAddr: 0x590, symBinAddr: 0x71E4, symSize: 0x2C }
  - { offsetInCU: 0x585F, offset: 0x1C564, size: 0x8, addend: 0x0, symName: __ZN14MovingWallCellD1Ev, symObjAddr: 0x5BC, symBinAddr: 0x7210, symSize: 0x2C }
  - { offsetInCU: 0x5889, offset: 0x1C58E, size: 0x8, addend: 0x0, symName: __ZN14MovingWallCellD0Ev, symObjAddr: 0x5E8, symBinAddr: 0x723C, symSize: 0x30 }
  - { offsetInCU: 0x58B3, offset: 0x1C5B8, size: 0x8, addend: 0x0, symName: __ZN14MovingWallCellD2Ev, symObjAddr: 0x6C0, symBinAddr: 0x726C, symSize: 0x48 }
  - { offsetInCU: 0x58E2, offset: 0x1C5E7, size: 0x8, addend: 0x0, symName: __ZN14MovingWallCellC1ERKS_, symObjAddr: 0x97C, symBinAddr: 0x72B4, symSize: 0x34 }
  - { offsetInCU: 0x5914, offset: 0x1C619, size: 0x8, addend: 0x0, symName: __ZNSt3__110unique_ptrI14MovingWallCellNS_14default_deleteIS1_EEEC1B8ue170006ILb1EvEEPS1_, symObjAddr: 0x9B0, symBinAddr: 0x72E8, symSize: 0x34 }
  - { offsetInCU: 0x5955, offset: 0x1C65A, size: 0x8, addend: 0x0, symName: __ZN14MovingWallCellC2ERKS_, symObjAddr: 0x9E4, symBinAddr: 0x731C, symSize: 0x94 }
  - { offsetInCU: 0x5991, offset: 0x1C696, size: 0x8, addend: 0x0, symName: __ZNSt3__110unique_ptrI14MovingWallCellNS_14default_deleteIS1_EEEC2B8ue170006ILb1EvEEPS1_, symObjAddr: 0xB58, symBinAddr: 0x73B0, symSize: 0x44 }
  - { offsetInCU: 0x59D7, offset: 0x1C6DC, size: 0x8, addend: 0x0, symName: __ZNSt3__117__compressed_pairIP14MovingWallCellNS_14default_deleteIS1_EEEC1B8ue170006IRS2_NS_16__value_init_tagEEEOT_OT0_, symObjAddr: 0xB9C, symBinAddr: 0x73F4, symSize: 0x3C }
  - { offsetInCU: 0x5A2D, offset: 0x1C732, size: 0x8, addend: 0x0, symName: __ZNSt3__117__compressed_pairIP14MovingWallCellNS_14default_deleteIS1_EEEC2B8ue170006IRS2_NS_16__value_init_tagEEEOT_OT0_, symObjAddr: 0xBD8, symBinAddr: 0x7430, symSize: 0x40 }
  - { offsetInCU: 0x5A83, offset: 0x1C788, size: 0x8, addend: 0x0, symName: __ZNSt3__122__compressed_pair_elemIP14MovingWallCellLi0ELb0EEC2B8ue170006IRS2_vEEOT_, symObjAddr: 0xC18, symBinAddr: 0x7470, symSize: 0x24 }
  - { offsetInCU: 0x5AC3, offset: 0x1C7C8, size: 0x8, addend: 0x0, symName: __ZNSt3__122__compressed_pair_elemINS_14default_deleteI14MovingWallCellEELi1ELb1EEC2B8ue170006ENS_16__value_init_tagE, symObjAddr: 0xC3C, symBinAddr: 0x7494, symSize: 0x14 }
  - { offsetInCU: 0x5AF5, offset: 0x1C7FA, size: 0x8, addend: 0x0, symName: __ZNSt3__110unique_ptrI14MovingWallCellNS_14default_deleteIS1_EEED2B8ue170006Ev, symObjAddr: 0xC50, symBinAddr: 0x74A8, symSize: 0x30 }
  - { offsetInCU: 0x5B1D, offset: 0x1C822, size: 0x8, addend: 0x0, symName: __ZNSt3__110unique_ptrI14MovingWallCellNS_14default_deleteIS1_EEE5resetB8ue170006EPS1_, symObjAddr: 0xC80, symBinAddr: 0x74D8, symSize: 0x78 }
  - { offsetInCU: 0x5B5F, offset: 0x1C864, size: 0x8, addend: 0x0, symName: __ZNSt3__117__compressed_pairIP14MovingWallCellNS_14default_deleteIS1_EEE5firstB8ue170006Ev, symObjAddr: 0xCF8, symBinAddr: 0x7550, symSize: 0x24 }
  - { offsetInCU: 0x5B83, offset: 0x1C888, size: 0x8, addend: 0x0, symName: __ZNSt3__117__compressed_pairIP14MovingWallCellNS_14default_deleteIS1_EEE6secondB8ue170006Ev, symObjAddr: 0xD1C, symBinAddr: 0x7574, symSize: 0x24 }
  - { offsetInCU: 0x5BA7, offset: 0x1C8AC, size: 0x8, addend: 0x0, symName: __ZNKSt3__114default_deleteI14MovingWallCellEclB8ue170006EPS1_, symObjAddr: 0xD40, symBinAddr: 0x7598, symSize: 0x4C }
  - { offsetInCU: 0x5BD9, offset: 0x1C8DE, size: 0x8, addend: 0x0, symName: __ZNSt3__122__compressed_pair_elemIP14MovingWallCellLi0ELb0EE5__getB8ue170006Ev, symObjAddr: 0xD8C, symBinAddr: 0x75E4, symSize: 0x14 }
  - { offsetInCU: 0x5BFD, offset: 0x1C902, size: 0x8, addend: 0x0, symName: __ZNSt3__122__compressed_pair_elemINS_14default_deleteI14MovingWallCellEELi1ELb1EE5__getB8ue170006Ev, symObjAddr: 0xDA0, symBinAddr: 0x75F8, symSize: 0x14 }
  - { offsetInCU: 0x5C21, offset: 0x1C926, size: 0x8, addend: 0x0, symName: __ZNSt3__110unique_ptrI4CellNS_14default_deleteIS1_EEEC2B8ue170006I14MovingWallCellNS2_IS6_EEvvEEONS0_IT_T0_EE, symObjAddr: 0xDB4, symBinAddr: 0x760C, symSize: 0x60 }
  - { offsetInCU: 0x5C6B, offset: 0x1C970, size: 0x8, addend: 0x0, symName: __ZNSt3__110unique_ptrI14MovingWallCellNS_14default_deleteIS1_EEE7releaseB8ue170006Ev, symObjAddr: 0xE14, symBinAddr: 0x766C, symSize: 0x44 }
  - { offsetInCU: 0x5C9E, offset: 0x1C9A3, size: 0x8, addend: 0x0, symName: __ZNSt3__110unique_ptrI14MovingWallCellNS_14default_deleteIS1_EEE11get_deleterB8ue170006Ev, symObjAddr: 0xE58, symBinAddr: 0x76B0, symSize: 0x24 }
  - { offsetInCU: 0x5CCC, offset: 0x1C9D1, size: 0x8, addend: 0x0, symName: __ZNSt3__117__compressed_pairIP4CellNS_14default_deleteIS1_EEEC1B8ue170006IP14MovingWallCellNS3_IS7_EEEEOT_OT0_, symObjAddr: 0xE7C, symBinAddr: 0x76D4, symSize: 0x3C }
  - { offsetInCU: 0x5D22, offset: 0x1CA27, size: 0x8, addend: 0x0, symName: __ZNSt3__117__compressed_pairIP4CellNS_14default_deleteIS1_EEEC2B8ue170006IP14MovingWallCellNS3_IS7_EEEEOT_OT0_, symObjAddr: 0xEB8, symBinAddr: 0x7710, symSize: 0x44 }
  - { offsetInCU: 0x5D78, offset: 0x1CA7D, size: 0x8, addend: 0x0, symName: __ZNSt3__122__compressed_pair_elemIP4CellLi0ELb0EEC2B8ue170006IP14MovingWallCellvEEOT_, symObjAddr: 0xEFC, symBinAddr: 0x7754, symSize: 0x24 }
  - { offsetInCU: 0x5DB8, offset: 0x1CABD, size: 0x8, addend: 0x0, symName: __ZNSt3__122__compressed_pair_elemINS_14default_deleteI4CellEELi1ELb1EEC2B8ue170006INS1_I14MovingWallCellEEvEEOT_, symObjAddr: 0xF20, symBinAddr: 0x7778, symSize: 0x38 }
  - { offsetInCU: 0x5DFD, offset: 0x1CB02, size: 0x8, addend: 0x0, symName: __ZNSt3__114default_deleteI4CellEC2B8ue170006I14MovingWallCellEERKNS0_IT_EEPNS_9enable_ifIXsr14is_convertibleIPS5_PS1_EE5valueEvE4typeE, symObjAddr: 0xF58, symBinAddr: 0x77B0, symSize: 0x1C }
  - { offsetInCU: 0x4EE1, offset: 0x21A41, size: 0x8, addend: 0x0, symName: __ZNSt3__124__put_character_sequenceB8ue170006IcNS_11char_traitsIcEEEERNS_13basic_ostreamIT_T0_EES7_PKS4_m, symObjAddr: 0x622C, symBinAddr: 0xD840, symSize: 0x1EC }
  - { offsetInCU: 0xA0CD, offset: 0x26C2D, size: 0x8, addend: 0x0, symName: __ZNSt3__111make_uniqueB8ue170006I4CellJRiS2_EEENS_11__unique_ifIT_E15__unique_singleEDpOT0_, symObjAddr: 0x4E0, symBinAddr: 0x7C78, symSize: 0x7C }
  - { offsetInCU: 0xA123, offset: 0x26C83, size: 0x8, addend: 0x0, symName: __ZNSt3__1lsB8ue170006INS_11char_traitsIcEEEERNS_13basic_ostreamIcT_EES6_PKc, symObjAddr: 0xE40, symBinAddr: 0x85D8, symSize: 0x48 }
  - { offsetInCU: 0xA169, offset: 0x26CC9, size: 0x8, addend: 0x0, symName: __ZNSt3__14endlB8ue170006IcNS_11char_traitsIcEEEERNS_13basic_ostreamIT_T0_EES7_, symObjAddr: 0xEB4, symBinAddr: 0x864C, symSize: 0x58 }
  - { offsetInCU: 0xA1A9, offset: 0x26D09, size: 0x8, addend: 0x0, symName: __ZNSt3__1lsB8ue170006IcNS_11char_traitsIcEENS_9allocatorIcEEEERNS_13basic_ostreamIT_T0_EES9_RKNS_12basic_stringIS6_S7_T1_EE, symObjAddr: 0xF0C, symBinAddr: 0x86A4, symSize: 0x4C }
  - { offsetInCU: 0xA201, offset: 0x26D61, size: 0x8, addend: 0x0, symName: __ZNSt3__1eqB8ue170006IcNS_11char_traitsIcEENS_9allocatorIcEEEEbRKNS_12basic_stringIT_T0_T1_EEPKS6_, symObjAddr: 0x36A4, symBinAddr: 0xAE3C, symSize: 0xAC }
  - { offsetInCU: 0xA268, offset: 0x26DC8, size: 0x8, addend: 0x0, symName: __ZNSt3__112__to_addressB8ue170006INS_6vectorINS_10unique_ptrI4CellNS_14default_deleteIS3_EEEENS_9allocatorIS6_EEEEEEPT_SB_, symObjAddr: 0x3D18, symBinAddr: 0xB458, symSize: 0x14 }
  - { offsetInCU: 0xA29D, offset: 0x26DFD, size: 0x8, addend: 0x0, symName: __ZNSt3__119__libcpp_deallocateB8ue170006EPvmm, symObjAddr: 0x3E08, symBinAddr: 0xB548, symSize: 0x60 }
  - { offsetInCU: 0xA304, offset: 0x26E64, size: 0x8, addend: 0x0, symName: __ZNSt3__124__is_overaligned_for_newB8ue170006Em, symObjAddr: 0x3E68, symBinAddr: 0xB5A8, symSize: 0x20 }
  - { offsetInCU: 0xA333, offset: 0x26E93, size: 0x8, addend: 0x0, symName: __ZNSt3__127__do_deallocate_handle_sizeB8ue170006IJSt11align_val_tEEEvPvmDpT_, symObjAddr: 0x3E88, symBinAddr: 0xB5C8, symSize: 0x30 }
  - { offsetInCU: 0xA387, offset: 0x26EE7, size: 0x8, addend: 0x0, symName: __ZNSt3__127__do_deallocate_handle_sizeB8ue170006IJEEEvPvmDpT_, symObjAddr: 0x3EB8, symBinAddr: 0xB5F8, symSize: 0x28 }
  - { offsetInCU: 0xA3C7, offset: 0x26F27, size: 0x8, addend: 0x0, symName: __ZNSt3__124__libcpp_operator_deleteB8ue170006IJPvSt11align_val_tEEEvDpT_, symObjAddr: 0x3EE0, symBinAddr: 0xB620, symSize: 0x2C }
  - { offsetInCU: 0xA411, offset: 0x26F71, size: 0x8, addend: 0x0, symName: __ZNSt3__124__libcpp_operator_deleteB8ue170006IJPvEEEvDpT_, symObjAddr: 0x3F0C, symBinAddr: 0xB64C, symSize: 0x24 }
  - { offsetInCU: 0xA447, offset: 0x26FA7, size: 0x8, addend: 0x0, symName: __ZNSt3__122__make_exception_guardB8ue170006INS_6vectorINS1_INS_10unique_ptrI4CellNS_14default_deleteIS3_EEEENS_9allocatorIS6_EEEENS7_IS9_EEE16__destroy_vectorEEENS_28__exception_guard_exceptionsIT_EESE_, symObjAddr: 0x409C, symBinAddr: 0xB7DC, symSize: 0x40 }
  - { offsetInCU: 0xA47C, offset: 0x26FDC, size: 0x8, addend: 0x0, symName: __ZNSt3__119__allocate_at_leastB8ue170006INS_9allocatorINS_6vectorINS_10unique_ptrI4CellNS_14default_deleteIS4_EEEENS1_IS7_EEEEEEEENS_19__allocation_resultINS_16allocator_traitsIT_E7pointerEEERSD_m, symObjAddr: 0x4374, symBinAddr: 0xBAB4, symSize: 0x40 }
  - { offsetInCU: 0xA4BF, offset: 0x2701F, size: 0x8, addend: 0x0, symName: __ZNSt3__13minB8ue170006ImEERKT_S3_S3_, symObjAddr: 0x44A4, symBinAddr: 0xBBE4, symSize: 0x2C }
  - { offsetInCU: 0xA6EC, offset: 0x2724C, size: 0x8, addend: 0x0, symName: __ZNSt3__13minB8ue170006ImNS_6__lessIvvEEEERKT_S5_S5_T0_, symObjAddr: 0x4530, symBinAddr: 0xBC70, symSize: 0x54 }
  - { offsetInCU: 0xA78B, offset: 0x272EB, size: 0x8, addend: 0x0, symName: __ZNSt3__120__throw_length_errorB8ue170006EPKc, symObjAddr: 0x4610, symBinAddr: 0xBD50, symSize: 0x64 }
  - { offsetInCU: 0xA7B6, offset: 0x27316, size: 0x8, addend: 0x0, symName: __ZNSt3__117__libcpp_allocateB8ue170006Emm, symObjAddr: 0x4784, symBinAddr: 0xBEC4, symSize: 0x60 }
  - { offsetInCU: 0xA811, offset: 0x27371, size: 0x8, addend: 0x0, symName: __ZNSt3__121__libcpp_operator_newB8ue170006IJmSt11align_val_tEEEPvDpT_, symObjAddr: 0x47E4, symBinAddr: 0xBF24, symSize: 0x2C }
  - { offsetInCU: 0xA85E, offset: 0x273BE, size: 0x8, addend: 0x0, symName: __ZNSt3__121__libcpp_operator_newB8ue170006IJmEEEPvDpT_, symObjAddr: 0x4810, symBinAddr: 0xBF50, symSize: 0x24 }
  - { offsetInCU: 0xA897, offset: 0x273F7, size: 0x8, addend: 0x0, symName: __ZNSt3__122__make_exception_guardB8ue170006INS_6vectorINS_10unique_ptrI4CellNS_14default_deleteIS3_EEEENS_9allocatorIS6_EEE16__destroy_vectorEEENS_28__exception_guard_exceptionsIT_EESC_, symObjAddr: 0x4ECC, symBinAddr: 0xC60C, symSize: 0x40 }
  - { offsetInCU: 0xA8CC, offset: 0x2742C, size: 0x8, addend: 0x0, symName: __ZNSt3__119__allocate_at_leastB8ue170006INS_9allocatorINS_10unique_ptrI4CellNS_14default_deleteIS3_EEEEEEEENS_19__allocation_resultINS_16allocator_traitsIT_E7pointerEEERSA_m, symObjAddr: 0x51F0, symBinAddr: 0xC930, symSize: 0x40 }
  - { offsetInCU: 0xA90F, offset: 0x2746F, size: 0x8, addend: 0x0, symName: __ZNSt3__112__to_addressB8ue170006INS_10unique_ptrI4CellNS_14default_deleteIS2_EEEEEEPT_S7_, symObjAddr: 0x5514, symBinAddr: 0xCC54, symSize: 0x14 }
  - { offsetInCU: 0xA944, offset: 0x274A4, size: 0x8, addend: 0x0, symName: __ZNSt3__116__pad_and_outputB8ue170006IcNS_11char_traitsIcEEEENS_19ostreambuf_iteratorIT_T0_EES6_PKS4_S8_S8_RNS_8ios_baseES4_, symObjAddr: 0x6468, symBinAddr: 0xDA48, symSize: 0x240 }
  - { offsetInCU: 0xAA14, offset: 0x27574, size: 0x8, addend: 0x0, symName: __ZNSt3__112__to_addressB8ue170006IcEEPT_S2_, symObjAddr: 0x69D0, symBinAddr: 0xDEB8, symSize: 0x14 }
  - { offsetInCU: 0xAA7C, offset: 0x275DC, size: 0x8, addend: 0x0, symName: __ZNSt3__19use_facetB8ue170006INS_5ctypeIcEEEERKT_RKNS_6localeE, symObjAddr: 0x6C88, symBinAddr: 0xE0C8, symSize: 0x2C }
  - { offsetInCU: 0xAF52, offset: 0x27AB2, size: 0x8, addend: 0x0, symName: __ZNSt3__122__make_exception_guardB8ue170006INS_6vectorIiNS_9allocatorIiEEE16__destroy_vectorEEENS_28__exception_guard_exceptionsIT_EES7_, symObjAddr: 0x7000, symBinAddr: 0xE278, symSize: 0x40 }
  - { offsetInCU: 0xAF87, offset: 0x27AE7, size: 0x8, addend: 0x0, symName: __ZNSt3__119__allocate_at_leastB8ue170006INS_9allocatorIiEEEENS_19__allocation_resultINS_16allocator_traitsIT_E7pointerEEERS5_m, symObjAddr: 0x73F4, symBinAddr: 0xE66C, symSize: 0x40 }
  - { offsetInCU: 0xAFCA, offset: 0x27B2A, size: 0x8, addend: 0x0, symName: __ZNSt3__112__to_addressB8ue170006IiEEPT_S2_, symObjAddr: 0x7718, symBinAddr: 0xE990, symSize: 0x14 }
  - { offsetInCU: 0xAFFF, offset: 0x27B5F, size: 0x8, addend: 0x0, symName: __ZNSt3__122__make_exception_guardB8ue170006INS_6vectorINS1_IiNS_9allocatorIiEEEENS2_IS4_EEE16__destroy_vectorEEENS_28__exception_guard_exceptionsIT_EES9_, symObjAddr: 0x7D34, symBinAddr: 0xEFAC, symSize: 0x40 }
  - { offsetInCU: 0xB034, offset: 0x27B94, size: 0x8, addend: 0x0, symName: __ZNSt3__119__allocate_at_leastB8ue170006INS_9allocatorINS_6vectorIiNS1_IiEEEEEEEENS_19__allocation_resultINS_16allocator_traitsIT_E7pointerEEERS8_m, symObjAddr: 0x8130, symBinAddr: 0xF3A8, symSize: 0x40 }
  - { offsetInCU: 0xB077, offset: 0x27BD7, size: 0x8, addend: 0x0, symName: __ZNSt3__112__to_addressB8ue170006INS_6vectorIiNS_9allocatorIiEEEEEEPT_S6_, symObjAddr: 0x8478, symBinAddr: 0xF6F0, symSize: 0x14 }
  - { offsetInCU: 0xB0AC, offset: 0x27C0C, size: 0x8, addend: 0x0, symName: __ZNSt3__130__uninitialized_allocator_copyB8ue170006INS_9allocatorIiEEPiS3_S3_EET2_RT_T0_T1_S4_, symObjAddr: 0x88B8, symBinAddr: 0xFB30, symSize: 0x80 }
  - { offsetInCU: 0xB149, offset: 0x27CA9, size: 0x8, addend: 0x0, symName: __ZNSt3__114__unwrap_rangeB8ue170006IPiS1_EENS_4pairIT0_S3_EET_S5_, symObjAddr: 0x8938, symBinAddr: 0xFBB0, symSize: 0x60 }
  - { offsetInCU: 0xB195, offset: 0x27CF5, size: 0x8, addend: 0x0, symName: __ZNSt3__135__uninitialized_allocator_copy_implB8ue170006INS_9allocatorIiEEiiiLPv0EEEPT2_RT_PT0_S9_S5_, symObjAddr: 0x8998, symBinAddr: 0xFC10, symSize: 0x38 }
  - { offsetInCU: 0xB217, offset: 0x27D77, size: 0x8, addend: 0x0, symName: __ZNSt3__113__unwrap_iterB8ue170006IPiNS_18__unwrap_iter_implIS1_Lb1EEELi0EEEDTclsrT0_8__unwrapclsr3stdE7declvalIT_EEEES5_, symObjAddr: 0x89D0, symBinAddr: 0xFC48, symSize: 0x24 }
  - { offsetInCU: 0xB25B, offset: 0x27DBB, size: 0x8, addend: 0x0, symName: __ZNSt3__113__rewrap_iterB8ue170006IPiS1_NS_18__unwrap_iter_implIS1_Lb1EEEEET_S4_T0_, symObjAddr: 0x89F4, symBinAddr: 0xFC6C, symSize: 0x3C }
  - { offsetInCU: 0xB2B0, offset: 0x27E10, size: 0x8, addend: 0x0, symName: __ZNSt3__19make_pairB8ue170006IPiS1_EENS_4pairINS_18__unwrap_ref_decayIT_E4typeENS3_IT0_E4typeEEEOS4_OS7_, symObjAddr: 0x8A30, symBinAddr: 0xFCA8, symSize: 0x38 }
  - { offsetInCU: 0xB402, offset: 0x27F62, size: 0x8, addend: 0x0, symName: __ZNSt3__14copyB8ue170006IPiS1_EET0_T_S3_S2_, symObjAddr: 0x8AD8, symBinAddr: 0xFD50, symSize: 0x40 }
  - { offsetInCU: 0xB45C, offset: 0x27FBC, size: 0x8, addend: 0x0, symName: __ZNSt3__16__copyB8ue170006INS_17_ClassicAlgPolicyEPiS2_S2_EENS_4pairIT0_T2_EES4_T1_S5_, symObjAddr: 0x8B18, symBinAddr: 0xFD90, symSize: 0x44 }
  - { offsetInCU: 0xB4C8, offset: 0x28028, size: 0x8, addend: 0x0, symName: __ZNSt3__123__dispatch_copy_or_moveB8ue170006INS_17_ClassicAlgPolicyENS_11__copy_loopIS1_EENS_14__copy_trivialEPiS5_S5_EENS_4pairIT2_T4_EES7_T3_S8_, symObjAddr: 0x8B5C, symBinAddr: 0xFDD4, symSize: 0x44 }
  - { offsetInCU: 0xB546, offset: 0x280A6, size: 0x8, addend: 0x0, symName: __ZNSt3__121__unwrap_and_dispatchB8ue170006INS_10__overloadINS_11__copy_loopINS_17_ClassicAlgPolicyEEENS_14__copy_trivialEEEPiS7_S7_Li0EEENS_4pairIT0_T2_EES9_T1_SA_, symObjAddr: 0x8BA0, symBinAddr: 0xFE18, symSize: 0xB4 }
  - { offsetInCU: 0xB61C, offset: 0x2817C, size: 0x8, addend: 0x0, symName: __ZNSt3__114__rewrap_rangeB8ue170006IPiS1_EET_S2_T0_, symObjAddr: 0x8C9C, symBinAddr: 0xFF14, symSize: 0x2C }
  - { offsetInCU: 0xB668, offset: 0x281C8, size: 0x8, addend: 0x0, symName: __ZNSt3__119__copy_trivial_implB8ue170006IiiEENS_4pairIPT_PT0_EES3_S3_S5_, symObjAddr: 0x8CC8, symBinAddr: 0xFF40, symSize: 0x80 }
  - { offsetInCU: 0xB6D1, offset: 0x28231, size: 0x8, addend: 0x0, symName: __ZNSt3__119__constexpr_memmoveB8ue170006IiiLi0EEEPT_S2_PT0_NS_15__element_countE, symObjAddr: 0x8D48, symBinAddr: 0xFFC0, symSize: 0x64 }
  - { offsetInCU: 0xB740, offset: 0x282A0, size: 0x8, addend: 0x0, symName: __ZNSt3__19make_pairB8ue170006IRPiS1_EENS_4pairINS_18__unwrap_ref_decayIT_E4typeENS4_IT0_E4typeEEEOS5_OS8_, symObjAddr: 0x8DAC, symBinAddr: 0x10024, symSize: 0x38 }
  - { offsetInCU: 0xB7E3, offset: 0x28343, size: 0x8, addend: 0x0, symName: __ZNSt3__122__make_exception_guardB8ue170006INS_6vectorINS1_INS1_IiNS_9allocatorIiEEEENS2_IS4_EEEENS2_IS6_EEE16__destroy_vectorEEENS_28__exception_guard_exceptionsIT_EESB_, symObjAddr: 0x939C, symBinAddr: 0x10614, symSize: 0x40 }
  - { offsetInCU: 0xB818, offset: 0x28378, size: 0x8, addend: 0x0, symName: __ZNSt3__119__allocate_at_leastB8ue170006INS_9allocatorINS_6vectorINS2_IiNS1_IiEEEENS1_IS4_EEEEEEEENS_19__allocation_resultINS_16allocator_traitsIT_E7pointerEEERSA_m, symObjAddr: 0x9798, symBinAddr: 0x10A10, symSize: 0x40 }
  - { offsetInCU: 0xB85B, offset: 0x283BB, size: 0x8, addend: 0x0, symName: __ZNSt3__112__to_addressB8ue170006INS_6vectorINS1_IiNS_9allocatorIiEEEENS2_IS4_EEEEEEPT_S8_, symObjAddr: 0x9AE0, symBinAddr: 0x10D58, symSize: 0x14 }
  - { offsetInCU: 0xB890, offset: 0x283F0, size: 0x8, addend: 0x0, symName: __ZNSt3__130__uninitialized_allocator_copyB8ue170006INS_9allocatorINS_6vectorIiNS1_IiEEEEEEPS4_S6_S6_EET2_RT_T0_T1_S7_, symObjAddr: 0x9F20, symBinAddr: 0x11198, symSize: 0x80 }
  - { offsetInCU: 0xB92D, offset: 0x2848D, size: 0x8, addend: 0x0, symName: __ZNSt3__114__unwrap_rangeB8ue170006IPNS_6vectorIiNS_9allocatorIiEEEES5_EENS_4pairIT0_S7_EET_S9_, symObjAddr: 0x9FA0, symBinAddr: 0x11218, symSize: 0x60 }
  - { offsetInCU: 0xB979, offset: 0x284D9, size: 0x8, addend: 0x0, symName: __ZNSt3__135__uninitialized_allocator_copy_implB8ue170006INS_9allocatorINS_6vectorIiNS1_IiEEEEEEPS4_S6_S6_EET2_RT_T0_T1_S7_, symObjAddr: 0xA000, symBinAddr: 0x11278, symSize: 0xF4 }
  - { offsetInCU: 0xBA17, offset: 0x28577, size: 0x8, addend: 0x0, symName: __ZNSt3__113__unwrap_iterB8ue170006IPNS_6vectorIiNS_9allocatorIiEEEENS_18__unwrap_iter_implIS5_Lb1EEELi0EEEDTclsrT0_8__unwrapclsr3stdE7declvalIT_EEEES9_, symObjAddr: 0xA0F4, symBinAddr: 0x1136C, symSize: 0x24 }
  - { offsetInCU: 0xBA5B, offset: 0x285BB, size: 0x8, addend: 0x0, symName: __ZNSt3__113__rewrap_iterB8ue170006IPNS_6vectorIiNS_9allocatorIiEEEES5_NS_18__unwrap_iter_implIS5_Lb1EEEEET_S8_T0_, symObjAddr: 0xA118, symBinAddr: 0x11390, symSize: 0x3C }
  - { offsetInCU: 0xBAB0, offset: 0x28610, size: 0x8, addend: 0x0, symName: __ZNSt3__19make_pairB8ue170006IPNS_6vectorIiNS_9allocatorIiEEEES5_EENS_4pairINS_18__unwrap_ref_decayIT_E4typeENS7_IT0_E4typeEEEOS8_OSB_, symObjAddr: 0xA154, symBinAddr: 0x113CC, symSize: 0x38 }
  - { offsetInCU: 0xBBD3, offset: 0x28733, size: 0x8, addend: 0x0, symName: __ZNSt3__122__make_exception_guardB8ue170006INS_29_AllocatorDestroyRangeReverseINS_9allocatorINS_6vectorIiNS2_IiEEEEEEPS5_EEEENS_28__exception_guard_exceptionsIT_EESA_, symObjAddr: 0xA1FC, symBinAddr: 0x11474, symSize: 0x4C }
  - { offsetInCU: 0xBC09, offset: 0x28769, size: 0x8, addend: 0x0, symName: __ZNSt3__119__allocator_destroyB8ue170006INS_9allocatorINS_6vectorIiNS1_IiEEEEEENS_16reverse_iteratorIPS4_EES8_EEvRT_T0_T1_, symObjAddr: 0xA48C, symBinAddr: 0x11704, symSize: 0x70 }
  - { offsetInCU: 0xBC6D, offset: 0x287CD, size: 0x8, addend: 0x0, symName: __ZNSt3__1neB8ue170006IPNS_6vectorIiNS_9allocatorIiEEEES5_EEbRKNS_16reverse_iteratorIT_EERKNS6_IT0_EE, symObjAddr: 0xA530, symBinAddr: 0x117A8, symSize: 0x48 }
  - { offsetInCU: 0xBCB9, offset: 0x28819, size: 0x8, addend: 0x0, symName: __ZNSt3__112__to_addressB8ue170006INS_16reverse_iteratorIPNS_6vectorIiNS_9allocatorIiEEEEEEvEEu7__decayIDTclsr19__to_address_helperIT_EE6__callclsr3stdE7declvalIRKS8_EEEEESA_, symObjAddr: 0xA578, symBinAddr: 0x117F0, symSize: 0x24 }
  - { offsetInCU: 0xC1C7, offset: 0x28D27, size: 0x8, addend: 0x0, symName: __ZSt28__throw_bad_array_new_lengthB8ue170006v, symObjAddr: 0x4750, symBinAddr: 0xBE90, symSize: 0x34 }
  - { offsetInCU: 0xEE8C, offset: 0x2B9EC, size: 0x8, addend: 0x0, symName: __ZN5FieldC2Eii, symObjAddr: 0x0, symBinAddr: 0x77CC, symSize: 0x220 }
  - { offsetInCU: 0xEF0F, offset: 0x2BA6F, size: 0x8, addend: 0x0, symName: __ZNSt3__16vectorINS0_INS_10unique_ptrI4CellNS_14default_deleteIS2_EEEENS_9allocatorIS5_EEEENS6_IS8_EEEC1B8ue170006Ev, symObjAddr: 0x220, symBinAddr: 0x79EC, symSize: 0x2C }
  - { offsetInCU: 0xEF37, offset: 0x2BA97, size: 0x8, addend: 0x0, symName: __ZNSt3__16vectorINS0_INS_10unique_ptrI4CellNS_14default_deleteIS2_EEEENS_9allocatorIS5_EEEENS6_IS8_EEEC1Em, symObjAddr: 0x280, symBinAddr: 0x7A18, symSize: 0x34 }
  - { offsetInCU: 0xEF71, offset: 0x2BAD1, size: 0x8, addend: 0x0, symName: __ZNSt3__16vectorINS0_INS_10unique_ptrI4CellNS_14default_deleteIS2_EEEENS_9allocatorIS5_EEEENS6_IS8_EEEaSB8ue170006EOSA_, symObjAddr: 0x2B4, symBinAddr: 0x7A4C, symSize: 0x34 }
  - { offsetInCU: 0xEFA7, offset: 0x2BB07, size: 0x8, addend: 0x0, symName: __ZNSt3__16vectorINS0_INS_10unique_ptrI4CellNS_14default_deleteIS2_EEEENS_9allocatorIS5_EEEENS6_IS8_EEED1B8ue170006Ev, symObjAddr: 0x2E8, symBinAddr: 0x7A80, symSize: 0x2C }
  - { offsetInCU: 0xEFCF, offset: 0x2BB2F, size: 0x8, addend: 0x0, symName: __ZNSt3__16vectorINS_10unique_ptrI4CellNS_14default_deleteIS2_EEEENS_9allocatorIS5_EEEC1Em, symObjAddr: 0x314, symBinAddr: 0x7AAC, symSize: 0x34 }
  - { offsetInCU: 0xF009, offset: 0x2BB69, size: 0x8, addend: 0x0, symName: __ZNSt3__16vectorINS0_INS_10unique_ptrI4CellNS_14default_deleteIS2_EEEENS_9allocatorIS5_EEEENS6_IS8_EEEixB8ue170006Em, symObjAddr: 0x348, symBinAddr: 0x7AE0, symSize: 0x2C }
  - { offsetInCU: 0xF03F, offset: 0x2BB9F, size: 0x8, addend: 0x0, symName: __ZNSt3__16vectorINS_10unique_ptrI4CellNS_14default_deleteIS2_EEEENS_9allocatorIS5_EEEaSB8ue170006EOS8_, symObjAddr: 0x374, symBinAddr: 0x7B0C, symSize: 0x34 }
  - { offsetInCU: 0xF075, offset: 0x2BBD5, size: 0x8, addend: 0x0, symName: __ZNSt3__16vectorINS_10unique_ptrI4CellNS_14default_deleteIS2_EEEENS_9allocatorIS5_EEED1B8ue170006Ev, symObjAddr: 0x3A8, symBinAddr: 0x7B40, symSize: 0x2C }
  - { offsetInCU: 0xF09D, offset: 0x2BBFD, size: 0x8, addend: 0x0, symName: __ZN5Field8set_cellEiiNSt3__110unique_ptrI4CellNS0_14default_deleteIS2_EEEE, symObjAddr: 0x3D4, symBinAddr: 0x7B6C, symSize: 0x10C }
  - { offsetInCU: 0xF0EE, offset: 0x2BC4E, size: 0x8, addend: 0x0, symName: __ZNSt3__110unique_ptrI4CellNS_14default_deleteIS1_EEED1B8ue170006Ev, symObjAddr: 0x55C, symBinAddr: 0x7CF4, symSize: 0x2C }
  - { offsetInCU: 0xF116, offset: 0x2BC76, size: 0x8, addend: 0x0, symName: __ZN5FieldC1Eii, symObjAddr: 0x588, symBinAddr: 0x7D20, symSize: 0x3C }
  - { offsetInCU: 0xF15C, offset: 0x2BCBC, size: 0x8, addend: 0x0, symName: __ZN5FieldC2EOS_, symObjAddr: 0x5C4, symBinAddr: 0x7D5C, symSize: 0x64 }
  - { offsetInCU: 0xF194, offset: 0x2BCF4, size: 0x8, addend: 0x0, symName: __ZNSt3__16vectorINS0_INS_10unique_ptrI4CellNS_14default_deleteIS2_EEEENS_9allocatorIS5_EEEENS6_IS8_EEEC1B8ue170006EOSA_, symObjAddr: 0x628, symBinAddr: 0x7DC0, symSize: 0x34 }
  - { offsetInCU: 0xF1CE, offset: 0x2BD2E, size: 0x8, addend: 0x0, symName: __ZN5FieldC1EOS_, symObjAddr: 0x65C, symBinAddr: 0x7DF4, symSize: 0x34 }
  - { offsetInCU: 0xF206, offset: 0x2BD66, size: 0x8, addend: 0x0, symName: __ZN5FieldaSEOS_, symObjAddr: 0x690, symBinAddr: 0x7E28, symSize: 0x80 }
  - { offsetInCU: 0xF23A, offset: 0x2BD9A, size: 0x8, addend: 0x0, symName: __ZN5Field9set_xSizeEi, symObjAddr: 0x710, symBinAddr: 0x7EA8, symSize: 0xA0 }
  - { offsetInCU: 0xF26E, offset: 0x2BDCE, size: 0x8, addend: 0x0, symName: __ZN5Field9set_ySizeEi, symObjAddr: 0x7B0, symBinAddr: 0x7F48, symSize: 0xA0 }
  - { offsetInCU: 0xF2A2, offset: 0x2BE02, size: 0x8, addend: 0x0, symName: __ZNK5Field9get_xSizeEv, symObjAddr: 0x850, symBinAddr: 0x7FE8, symSize: 0x18 }
  - { offsetInCU: 0xF2C8, offset: 0x2BE28, size: 0x8, addend: 0x0, symName: __ZNK5Field9get_ySizeEv, symObjAddr: 0x868, symBinAddr: 0x8000, symSize: 0x18 }
  - { offsetInCU: 0xF2EE, offset: 0x2BE4E, size: 0x8, addend: 0x0, symName: __ZNSt3__16vectorINS_10unique_ptrI4CellNS_14default_deleteIS2_EEEENS_9allocatorIS5_EEEixB8ue170006Em, symObjAddr: 0x880, symBinAddr: 0x8018, symSize: 0x24 }
  - { offsetInCU: 0xF324, offset: 0x2BE84, size: 0x8, addend: 0x0, symName: __ZNSt3__110unique_ptrI4CellNS_14default_deleteIS1_EEEaSB8ue170006EOS4_, symObjAddr: 0x8A4, symBinAddr: 0x803C, symSize: 0x50 }
  - { offsetInCU: 0xF356, offset: 0x2BEB6, size: 0x8, addend: 0x0, symName: __ZN5Field8get_cellEii, symObjAddr: 0x8F4, symBinAddr: 0x808C, symSize: 0x100 }
  - { offsetInCU: 0xF398, offset: 0x2BEF8, size: 0x8, addend: 0x0, symName: __ZNKSt3__110unique_ptrI4CellNS_14default_deleteIS1_EEE3getB8ue170006Ev, symObjAddr: 0x9F4, symBinAddr: 0x818C, symSize: 0x28 }
  - { offsetInCU: 0xF3BC, offset: 0x2BF1C, size: 0x8, addend: 0x0, symName: _create_field, symObjAddr: 0xA1C, symBinAddr: 0x81B4, symSize: 0x1C8 }
  - { offsetInCU: 0xF42D, offset: 0x2BF8D, size: 0x8, addend: 0x0, symName: _get_cell, symObjAddr: 0xBE4, symBinAddr: 0x837C, symSize: 0x34 }
  - { offsetInCU: 0xF471, offset: 0x2BFD1, size: 0x8, addend: 0x0, symName: _display, symObjAddr: 0xC18, symBinAddr: 0x83B0, symSize: 0x228 }
  - { offsetInCU: 0xF4FF, offset: 0x2C05F, size: 0x8, addend: 0x0, symName: __ZNSt3__113basic_ostreamIcNS_11char_traitsIcEEElsB8ue170006EPFRS3_S4_E, symObjAddr: 0xE88, symBinAddr: 0x8620, symSize: 0x2C }
  - { offsetInCU: 0xF531, offset: 0x2C091, size: 0x8, addend: 0x0, symName: _display_without_walls, symObjAddr: 0xF58, symBinAddr: 0x86F0, symSize: 0x110 }
  - { offsetInCU: 0xF582, offset: 0x2C0E2, size: 0x8, addend: 0x0, symName: _display_test, symObjAddr: 0x1068, symBinAddr: 0x8800, symSize: 0x140 }
  - { offsetInCU: 0xF5D3, offset: 0x2C133, size: 0x8, addend: 0x0, symName: _update, symObjAddr: 0x11A8, symBinAddr: 0x8940, symSize: 0x23F0 }
  - { offsetInCU: 0xF71F, offset: 0x2C27F, size: 0x8, addend: 0x0, symName: __ZNSt3__16vectorIiNS_9allocatorIiEEEC1EmRKi, symObjAddr: 0x3598, symBinAddr: 0xAD30, symSize: 0x3C }
  - { offsetInCU: 0xF768, offset: 0x2C2C8, size: 0x8, addend: 0x0, symName: __ZNSt3__16vectorINS0_IiNS_9allocatorIiEEEENS1_IS3_EEEC1EmRKS3_, symObjAddr: 0x35D4, symBinAddr: 0xAD6C, symSize: 0x3C }
  - { offsetInCU: 0xF7B1, offset: 0x2C311, size: 0x8, addend: 0x0, symName: __ZNSt3__16vectorINS0_INS0_IiNS_9allocatorIiEEEENS1_IS3_EEEENS1_IS5_EEEC1EmRKS5_, symObjAddr: 0x3610, symBinAddr: 0xADA8, symSize: 0x3C }
  - { offsetInCU: 0xF7FA, offset: 0x2C35A, size: 0x8, addend: 0x0, symName: __ZNSt3__16vectorINS0_IiNS_9allocatorIiEEEENS1_IS3_EEED1B8ue170006Ev, symObjAddr: 0x364C, symBinAddr: 0xADE4, symSize: 0x2C }
  - { offsetInCU: 0xF822, offset: 0x2C382, size: 0x8, addend: 0x0, symName: __ZNSt3__16vectorIiNS_9allocatorIiEEED1B8ue170006Ev, symObjAddr: 0x3678, symBinAddr: 0xAE10, symSize: 0x2C }
  - { offsetInCU: 0xF84A, offset: 0x2C3AA, size: 0x8, addend: 0x0, symName: __ZNSt3__16vectorINS0_INS0_IiNS_9allocatorIiEEEENS1_IS3_EEEENS1_IS5_EEEixB8ue170006Em, symObjAddr: 0x3750, symBinAddr: 0xAEE8, symSize: 0x2C }
  - { offsetInCU: 0xF880, offset: 0x2C3E0, size: 0x8, addend: 0x0, symName: __ZNSt3__16vectorINS0_IiNS_9allocatorIiEEEENS1_IS3_EEEixB8ue170006Em, symObjAddr: 0x377C, symBinAddr: 0xAF14, symSize: 0x2C }
  - { offsetInCU: 0xF8B6, offset: 0x2C416, size: 0x8, addend: 0x0, symName: __ZNSt3__16vectorIiNS_9allocatorIiEEEixB8ue170006Em, symObjAddr: 0x37A8, symBinAddr: 0xAF40, symSize: 0x24 }
  - { offsetInCU: 0xF8EC, offset: 0x2C44C, size: 0x8, addend: 0x0, symName: __ZNSt3__16vectorINS0_INS0_IiNS_9allocatorIiEEEENS1_IS3_EEEENS1_IS5_EEED1B8ue170006Ev, symObjAddr: 0x37CC, symBinAddr: 0xAF64, symSize: 0x2C }
  - { offsetInCU: 0xF914, offset: 0x2C474, size: 0x8, addend: 0x0, symName: __ZNSt3__16vectorINS0_INS_10unique_ptrI4CellNS_14default_deleteIS2_EEEENS_9allocatorIS5_EEEENS6_IS8_EEEC2B8ue170006Ev, symObjAddr: 0x3844, symBinAddr: 0xAF90, symSize: 0x4C }
  - { offsetInCU: 0xF946, offset: 0x2C4A6, size: 0x8, addend: 0x0, symName: __ZNSt3__117__compressed_pairIPNS_6vectorINS_10unique_ptrI4CellNS_14default_deleteIS3_EEEENS_9allocatorIS6_EEEENS7_IS9_EEEC1B8ue170006IDnNS_18__default_init_tagEEEOT_OT0_, symObjAddr: 0x3890, symBinAddr: 0xAFDC, symSize: 0x3C }
  - { offsetInCU: 0xF99C, offset: 0x2C4FC, size: 0x8, addend: 0x0, symName: __ZNSt3__117__compressed_pairIPNS_6vectorINS_10unique_ptrI4CellNS_14default_deleteIS3_EEEENS_9allocatorIS6_EEEENS7_IS9_EEEC2B8ue170006IDnNS_18__default_init_tagEEEOT_OT0_, symObjAddr: 0x38D8, symBinAddr: 0xB018, symSize: 0x40 }
  - { offsetInCU: 0xF9F2, offset: 0x2C552, size: 0x8, addend: 0x0, symName: __ZNSt3__122__compressed_pair_elemIPNS_6vectorINS_10unique_ptrI4CellNS_14default_deleteIS3_EEEENS_9allocatorIS6_EEEELi0ELb0EEC2B8ue170006IDnvEEOT_, symObjAddr: 0x3918, symBinAddr: 0xB058, symSize: 0x1C }
  - { offsetInCU: 0xFA32, offset: 0x2C592, size: 0x8, addend: 0x0, symName: __ZNSt3__122__compressed_pair_elemINS_9allocatorINS_6vectorINS_10unique_ptrI4CellNS_14default_deleteIS4_EEEENS1_IS7_EEEEEELi1ELb1EEC2B8ue170006ENS_18__default_init_tagE, symObjAddr: 0x3934, symBinAddr: 0xB074, symSize: 0x2C }
  - { offsetInCU: 0xFA64, offset: 0x2C5C4, size: 0x8, addend: 0x0, symName: __ZNSt3__19allocatorINS_6vectorINS_10unique_ptrI4CellNS_14default_deleteIS3_EEEENS0_IS6_EEEEEC2B8ue170006Ev, symObjAddr: 0x3960, symBinAddr: 0xB0A0, symSize: 0x2C }
  - { offsetInCU: 0xFA8C, offset: 0x2C5EC, size: 0x8, addend: 0x0, symName: __ZNSt3__116__non_trivial_ifILb1ENS_9allocatorINS_6vectorINS_10unique_ptrI4CellNS_14default_deleteIS4_EEEENS1_IS7_EEEEEEEC2B8ue170006Ev, symObjAddr: 0x398C, symBinAddr: 0xB0CC, symSize: 0x14 }
  - { offsetInCU: 0xFAB4, offset: 0x2C614, size: 0x8, addend: 0x0, symName: __ZNSt3__16vectorINS0_INS_10unique_ptrI4CellNS_14default_deleteIS2_EEEENS_9allocatorIS5_EEEENS6_IS8_EEED2B8ue170006Ev, symObjAddr: 0x39A0, symBinAddr: 0xB0E0, symSize: 0x44 }
  - { offsetInCU: 0xFADC, offset: 0x2C63C, size: 0x8, addend: 0x0, symName: __ZNSt3__16vectorINS0_INS_10unique_ptrI4CellNS_14default_deleteIS2_EEEENS_9allocatorIS5_EEEENS6_IS8_EEE16__destroy_vectorC1B8ue170006ERSA_, symObjAddr: 0x39E4, symBinAddr: 0xB124, symSize: 0x34 }
  - { offsetInCU: 0xFB13, offset: 0x2C673, size: 0x8, addend: 0x0, symName: __ZNSt3__16vectorINS0_INS_10unique_ptrI4CellNS_14default_deleteIS2_EEEENS_9allocatorIS5_EEEENS6_IS8_EEE16__destroy_vectorclB8ue170006Ev, symObjAddr: 0x3A18, symBinAddr: 0xB158, symSize: 0x90 }
  - { offsetInCU: 0xFB37, offset: 0x2C697, size: 0x8, addend: 0x0, symName: __ZNSt3__16vectorINS0_INS_10unique_ptrI4CellNS_14default_deleteIS2_EEEENS_9allocatorIS5_EEEENS6_IS8_EEE16__destroy_vectorC2B8ue170006ERSA_, symObjAddr: 0x3AA8, symBinAddr: 0xB1E8, symSize: 0x20 }
  - { offsetInCU: 0xFB6E, offset: 0x2C6CE, size: 0x8, addend: 0x0, symName: __ZNSt3__16vectorINS0_INS_10unique_ptrI4CellNS_14default_deleteIS2_EEEENS_9allocatorIS5_EEEENS6_IS8_EEE7__clearB8ue170006Ev, symObjAddr: 0x3AC8, symBinAddr: 0xB208, symSize: 0x28 }
  - { offsetInCU: 0xFB92, offset: 0x2C6F2, size: 0x8, addend: 0x0, symName: __ZNKSt3__16vectorINS0_INS_10unique_ptrI4CellNS_14default_deleteIS2_EEEENS_9allocatorIS5_EEEENS6_IS8_EEE17__annotate_deleteB8ue170006Ev, symObjAddr: 0x3AF0, symBinAddr: 0xB230, symSize: 0xD4 }
  - { offsetInCU: 0xFBB6, offset: 0x2C716, size: 0x8, addend: 0x0, symName: __ZNSt3__116allocator_traitsINS_9allocatorINS_6vectorINS_10unique_ptrI4CellNS_14default_deleteIS4_EEEENS1_IS7_EEEEEEE10deallocateB8ue170006ERSA_PS9_m, symObjAddr: 0x3BC4, symBinAddr: 0xB304, symSize: 0x34 }
  - { offsetInCU: 0xFBF7, offset: 0x2C757, size: 0x8, addend: 0x0, symName: __ZNSt3__16vectorINS0_INS_10unique_ptrI4CellNS_14default_deleteIS2_EEEENS_9allocatorIS5_EEEENS6_IS8_EEE7__allocB8ue170006Ev, symObjAddr: 0x3BF8, symBinAddr: 0xB338, symSize: 0x28 }
  - { offsetInCU: 0xFC1B, offset: 0x2C77B, size: 0x8, addend: 0x0, symName: __ZNKSt3__16vectorINS0_INS_10unique_ptrI4CellNS_14default_deleteIS2_EEEENS_9allocatorIS5_EEEENS6_IS8_EEE8capacityB8ue170006Ev, symObjAddr: 0x3C20, symBinAddr: 0xB360, symSize: 0x40 }
  - { offsetInCU: 0xFC3F, offset: 0x2C79F, size: 0x8, addend: 0x0, symName: __ZNSt3__16vectorINS0_INS_10unique_ptrI4CellNS_14default_deleteIS2_EEEENS_9allocatorIS5_EEEENS6_IS8_EEE22__base_destruct_at_endB8ue170006EPS8_, symObjAddr: 0x3C60, symBinAddr: 0xB3A0, symSize: 0x8C }
  - { offsetInCU: 0xFC81, offset: 0x2C7E1, size: 0x8, addend: 0x0, symName: __ZNSt3__116allocator_traitsINS_9allocatorINS_6vectorINS_10unique_ptrI4CellNS_14default_deleteIS4_EEEENS1_IS7_EEEEEEE7destroyB8ue170006IS9_vEEvRSA_PT_, symObjAddr: 0x3CEC, symBinAddr: 0xB42C, symSize: 0x2C }
  - { offsetInCU: 0xFCBD, offset: 0x2C81D, size: 0x8, addend: 0x0, symName: __ZNSt3__19allocatorINS_6vectorINS_10unique_ptrI4CellNS_14default_deleteIS3_EEEENS0_IS6_EEEEE7destroyB8ue170006EPS8_, symObjAddr: 0x3D2C, symBinAddr: 0xB46C, symSize: 0x28 }
  - { offsetInCU: 0xFCEF, offset: 0x2C84F, size: 0x8, addend: 0x0, symName: __ZNKSt3__16vectorINS0_INS_10unique_ptrI4CellNS_14default_deleteIS2_EEEENS_9allocatorIS5_EEEENS6_IS8_EEE31__annotate_contiguous_containerB8ue170006EPKvSC_SC_SC_, symObjAddr: 0x3D54, symBinAddr: 0xB494, symSize: 0x20 }
  - { offsetInCU: 0xFD43, offset: 0x2C8A3, size: 0x8, addend: 0x0, symName: __ZNKSt3__16vectorINS0_INS_10unique_ptrI4CellNS_14default_deleteIS2_EEEENS_9allocatorIS5_EEEENS6_IS8_EEE4dataB8ue170006Ev, symObjAddr: 0x3D74, symBinAddr: 0xB4B4, symSize: 0x28 }
  - { offsetInCU: 0xFD67, offset: 0x2C8C7, size: 0x8, addend: 0x0, symName: __ZNKSt3__16vectorINS0_INS_10unique_ptrI4CellNS_14default_deleteIS2_EEEENS_9allocatorIS5_EEEENS6_IS8_EEE4sizeB8ue170006Ev, symObjAddr: 0x3D9C, symBinAddr: 0xB4DC, symSize: 0x28 }
  - { offsetInCU: 0xFD8B, offset: 0x2C8EB, size: 0x8, addend: 0x0, symName: __ZNSt3__19allocatorINS_6vectorINS_10unique_ptrI4CellNS_14default_deleteIS3_EEEENS0_IS6_EEEEE10deallocateB8ue170006EPS8_m, symObjAddr: 0x3DC4, symBinAddr: 0xB504, symSize: 0x44 }
  - { offsetInCU: 0xFDCB, offset: 0x2C92B, size: 0x8, addend: 0x0, symName: __ZNSt3__117__compressed_pairIPNS_6vectorINS_10unique_ptrI4CellNS_14default_deleteIS3_EEEENS_9allocatorIS6_EEEENS7_IS9_EEE6secondB8ue170006Ev, symObjAddr: 0x3F30, symBinAddr: 0xB670, symSize: 0x24 }
  - { offsetInCU: 0xFDEF, offset: 0x2C94F, size: 0x8, addend: 0x0, symName: __ZNSt3__122__compressed_pair_elemINS_9allocatorINS_6vectorINS_10unique_ptrI4CellNS_14default_deleteIS4_EEEENS1_IS7_EEEEEELi1ELb1EE5__getB8ue170006Ev, symObjAddr: 0x3F54, symBinAddr: 0xB694, symSize: 0x14 }
  - { offsetInCU: 0xFE13, offset: 0x2C973, size: 0x8, addend: 0x0, symName: __ZNKSt3__16vectorINS0_INS_10unique_ptrI4CellNS_14default_deleteIS2_EEEENS_9allocatorIS5_EEEENS6_IS8_EEE9__end_capB8ue170006Ev, symObjAddr: 0x3F68, symBinAddr: 0xB6A8, symSize: 0x28 }
  - { offsetInCU: 0xFE37, offset: 0x2C997, size: 0x8, addend: 0x0, symName: __ZNKSt3__117__compressed_pairIPNS_6vectorINS_10unique_ptrI4CellNS_14default_deleteIS3_EEEENS_9allocatorIS6_EEEENS7_IS9_EEE5firstB8ue170006Ev, symObjAddr: 0x3F90, symBinAddr: 0xB6D0, symSize: 0x24 }
  - { offsetInCU: 0xFE5B, offset: 0x2C9BB, size: 0x8, addend: 0x0, symName: __ZNKSt3__122__compressed_pair_elemIPNS_6vectorINS_10unique_ptrI4CellNS_14default_deleteIS3_EEEENS_9allocatorIS6_EEEELi0ELb0EE5__getB8ue170006Ev, symObjAddr: 0x3FB4, symBinAddr: 0xB6F4, symSize: 0x14 }
  - { offsetInCU: 0xFE7F, offset: 0x2C9DF, size: 0x8, addend: 0x0, symName: __ZNSt3__16vectorINS0_INS_10unique_ptrI4CellNS_14default_deleteIS2_EEEENS_9allocatorIS5_EEEENS6_IS8_EEEC2Em, symObjAddr: 0x3FC8, symBinAddr: 0xB708, symSize: 0xD4 }
  - { offsetInCU: 0xFECF, offset: 0x2CA2F, size: 0x8, addend: 0x0, symName: __ZNSt3__16vectorINS0_INS_10unique_ptrI4CellNS_14default_deleteIS2_EEEENS_9allocatorIS5_EEEENS6_IS8_EEE11__vallocateB8ue170006Em, symObjAddr: 0x40DC, symBinAddr: 0xB81C, symSize: 0xB4 }
  - { offsetInCU: 0xFF11, offset: 0x2CA71, size: 0x8, addend: 0x0, symName: __ZNSt3__16vectorINS0_INS_10unique_ptrI4CellNS_14default_deleteIS2_EEEENS_9allocatorIS5_EEEENS6_IS8_EEE18__construct_at_endEm, symObjAddr: 0x4190, symBinAddr: 0xB8D0, symSize: 0xC8 }
  - { offsetInCU: 0xFF83, offset: 0x2CAE3, size: 0x8, addend: 0x0, symName: __ZNSt3__128__exception_guard_exceptionsINS_6vectorINS1_INS_10unique_ptrI4CellNS_14default_deleteIS3_EEEENS_9allocatorIS6_EEEENS7_IS9_EEE16__destroy_vectorEE10__completeB8ue170006Ev, symObjAddr: 0x4258, symBinAddr: 0xB998, symSize: 0x1C }
  - { offsetInCU: 0xFFA7, offset: 0x2CB07, size: 0x8, addend: 0x0, symName: __ZNSt3__128__exception_guard_exceptionsINS_6vectorINS1_INS_10unique_ptrI4CellNS_14default_deleteIS3_EEEENS_9allocatorIS6_EEEENS7_IS9_EEE16__destroy_vectorEED1B8ue170006Ev, symObjAddr: 0x4274, symBinAddr: 0xB9B4, symSize: 0x2C }
  - { offsetInCU: 0xFFCF, offset: 0x2CB2F, size: 0x8, addend: 0x0, symName: __ZNSt3__128__exception_guard_exceptionsINS_6vectorINS1_INS_10unique_ptrI4CellNS_14default_deleteIS3_EEEENS_9allocatorIS6_EEEENS7_IS9_EEE16__destroy_vectorEEC1B8ue170006ESC_, symObjAddr: 0x42A0, symBinAddr: 0xB9E0, symSize: 0x34 }
  - { offsetInCU: 0x10005, offset: 0x2CB65, size: 0x8, addend: 0x0, symName: __ZNSt3__128__exception_guard_exceptionsINS_6vectorINS1_INS_10unique_ptrI4CellNS_14default_deleteIS3_EEEENS_9allocatorIS6_EEEENS7_IS9_EEE16__destroy_vectorEEC2B8ue170006ESC_, symObjAddr: 0x42D4, symBinAddr: 0xBA14, symSize: 0x24 }
  - { offsetInCU: 0x1003B, offset: 0x2CB9B, size: 0x8, addend: 0x0, symName: __ZNKSt3__16vectorINS0_INS_10unique_ptrI4CellNS_14default_deleteIS2_EEEENS_9allocatorIS5_EEEENS6_IS8_EEE8max_sizeEv, symObjAddr: 0x42F8, symBinAddr: 0xBA38, symSize: 0x60 }
  - { offsetInCU: 0x10062, offset: 0x2CBC2, size: 0x8, addend: 0x0, symName: __ZNKSt3__16vectorINS0_INS_10unique_ptrI4CellNS_14default_deleteIS2_EEEENS_9allocatorIS5_EEEENS6_IS8_EEE20__throw_length_errorB8ue170006Ev, symObjAddr: 0x4358, symBinAddr: 0xBA98, symSize: 0x1C }
  - { offsetInCU: 0x10086, offset: 0x2CBE6, size: 0x8, addend: 0x0, symName: __ZNSt3__16vectorINS0_INS_10unique_ptrI4CellNS_14default_deleteIS2_EEEENS_9allocatorIS5_EEEENS6_IS8_EEE9__end_capB8ue170006Ev, symObjAddr: 0x43B4, symBinAddr: 0xBAF4, symSize: 0x28 }
  - { offsetInCU: 0x100AA, offset: 0x2CC0A, size: 0x8, addend: 0x0, symName: __ZNKSt3__16vectorINS0_INS_10unique_ptrI4CellNS_14default_deleteIS2_EEEENS_9allocatorIS5_EEEENS6_IS8_EEE14__annotate_newB8ue170006Em, symObjAddr: 0x43DC, symBinAddr: 0xBB1C, symSize: 0xC8 }
  - { offsetInCU: 0x100E7, offset: 0x2CC47, size: 0x8, addend: 0x0, symName: __ZNSt3__116allocator_traitsINS_9allocatorINS_6vectorINS_10unique_ptrI4CellNS_14default_deleteIS4_EEEENS1_IS7_EEEEEEE8max_sizeB8ue170006ISA_vEEmRKSA_, symObjAddr: 0x44D0, symBinAddr: 0xBC10, symSize: 0x24 }
  - { offsetInCU: 0x10114, offset: 0x2CC74, size: 0x8, addend: 0x0, symName: __ZNKSt3__16vectorINS0_INS_10unique_ptrI4CellNS_14default_deleteIS2_EEEENS_9allocatorIS5_EEEENS6_IS8_EEE7__allocB8ue170006Ev, symObjAddr: 0x44F4, symBinAddr: 0xBC34, symSize: 0x28 }
  - { offsetInCU: 0x10138, offset: 0x2CC98, size: 0x8, addend: 0x0, symName: __ZNSt3__114numeric_limitsIlE3maxB8ue170006Ev, symObjAddr: 0x451C, symBinAddr: 0xBC5C, symSize: 0x14 }
  - { offsetInCU: 0x10160, offset: 0x2CCC0, size: 0x8, addend: 0x0, symName: __ZNKSt3__16__lessIvvEclB8ue170006ImmEEbRKT_RKT0_, symObjAddr: 0x4584, symBinAddr: 0xBCC4, symSize: 0x34 }
  - { offsetInCU: 0x101B2, offset: 0x2CD12, size: 0x8, addend: 0x0, symName: __ZNKSt3__19allocatorINS_6vectorINS_10unique_ptrI4CellNS_14default_deleteIS3_EEEENS0_IS6_EEEEE8max_sizeB8ue170006Ev, symObjAddr: 0x45B8, symBinAddr: 0xBCF8, symSize: 0x18 }
  - { offsetInCU: 0x101D6, offset: 0x2CD36, size: 0x8, addend: 0x0, symName: __ZNKSt3__117__compressed_pairIPNS_6vectorINS_10unique_ptrI4CellNS_14default_deleteIS3_EEEENS_9allocatorIS6_EEEENS7_IS9_EEE6secondB8ue170006Ev, symObjAddr: 0x45D0, symBinAddr: 0xBD10, symSize: 0x24 }
  - { offsetInCU: 0x101FA, offset: 0x2CD5A, size: 0x8, addend: 0x0, symName: __ZNKSt3__122__compressed_pair_elemINS_9allocatorINS_6vectorINS_10unique_ptrI4CellNS_14default_deleteIS4_EEEENS1_IS7_EEEEEELi1ELb1EE5__getB8ue170006Ev, symObjAddr: 0x45F4, symBinAddr: 0xBD34, symSize: 0x14 }
  - { offsetInCU: 0x1021E, offset: 0x2CD7E, size: 0x8, addend: 0x0, symName: __ZNSt3__123__libcpp_numeric_limitsIlLb1EE3maxB8ue170006Ev, symObjAddr: 0x4608, symBinAddr: 0xBD48, symSize: 0x8 }
  - { offsetInCU: 0x10232, offset: 0x2CD92, size: 0x8, addend: 0x0, symName: __ZNSt12length_errorC1B8ue170006EPKc, symObjAddr: 0x4674, symBinAddr: 0xBDB4, symSize: 0x34 }
  - { offsetInCU: 0x10268, offset: 0x2CDC8, size: 0x8, addend: 0x0, symName: __ZNSt12length_errorC2B8ue170006EPKc, symObjAddr: 0x46A8, symBinAddr: 0xBDE8, symSize: 0x4C }
  - { offsetInCU: 0x1029E, offset: 0x2CDFE, size: 0x8, addend: 0x0, symName: __ZNSt3__19allocatorINS_6vectorINS_10unique_ptrI4CellNS_14default_deleteIS3_EEEENS0_IS6_EEEEE8allocateB8ue170006Em, symObjAddr: 0x46F4, symBinAddr: 0xBE34, symSize: 0x5C }
  - { offsetInCU: 0x102D0, offset: 0x2CE30, size: 0x8, addend: 0x0, symName: __ZNSt3__117__compressed_pairIPNS_6vectorINS_10unique_ptrI4CellNS_14default_deleteIS3_EEEENS_9allocatorIS6_EEEENS7_IS9_EEE5firstB8ue170006Ev, symObjAddr: 0x4834, symBinAddr: 0xBF74, symSize: 0x24 }
  - { offsetInCU: 0x102F4, offset: 0x2CE54, size: 0x8, addend: 0x0, symName: __ZNSt3__122__compressed_pair_elemIPNS_6vectorINS_10unique_ptrI4CellNS_14default_deleteIS3_EEEENS_9allocatorIS6_EEEELi0ELb0EE5__getB8ue170006Ev, symObjAddr: 0x4858, symBinAddr: 0xBF98, symSize: 0x14 }
  - { offsetInCU: 0x10331, offset: 0x2CE91, size: 0x8, addend: 0x0, symName: __ZNSt3__16vectorINS0_INS_10unique_ptrI4CellNS_14default_deleteIS2_EEEENS_9allocatorIS5_EEEENS6_IS8_EEE21_ConstructTransactionC1B8ue170006ERSA_m, symObjAddr: 0x486C, symBinAddr: 0xBFAC, symSize: 0x3C }
  - { offsetInCU: 0x10377, offset: 0x2CED7, size: 0x8, addend: 0x0, symName: __ZNSt3__116allocator_traitsINS_9allocatorINS_6vectorINS_10unique_ptrI4CellNS_14default_deleteIS4_EEEENS1_IS7_EEEEEEE9constructB8ue170006IS9_JEvEEvRSA_PT_DpOT0_, symObjAddr: 0x48A8, symBinAddr: 0xBFE8, symSize: 0x2C }
  - { offsetInCU: 0x103B9, offset: 0x2CF19, size: 0x8, addend: 0x0, symName: __ZNSt3__16vectorINS0_INS_10unique_ptrI4CellNS_14default_deleteIS2_EEEENS_9allocatorIS5_EEEENS6_IS8_EEE21_ConstructTransactionD1B8ue170006Ev, symObjAddr: 0x48D4, symBinAddr: 0xC014, symSize: 0x2C }
  - { offsetInCU: 0x103E1, offset: 0x2CF41, size: 0x8, addend: 0x0, symName: __ZNSt3__16vectorINS0_INS_10unique_ptrI4CellNS_14default_deleteIS2_EEEENS_9allocatorIS5_EEEENS6_IS8_EEE21_ConstructTransactionC2B8ue170006ERSA_m, symObjAddr: 0x4900, symBinAddr: 0xC040, symSize: 0x4C }
  - { offsetInCU: 0x10427, offset: 0x2CF87, size: 0x8, addend: 0x0, symName: __ZNSt3__19allocatorINS_6vectorINS_10unique_ptrI4CellNS_14default_deleteIS3_EEEENS0_IS6_EEEEE9constructB8ue170006IS8_JEEEvPT_DpOT0_, symObjAddr: 0x494C, symBinAddr: 0xC08C, symSize: 0x28 }
  - { offsetInCU: 0x10468, offset: 0x2CFC8, size: 0x8, addend: 0x0, symName: __ZNSt3__16vectorINS_10unique_ptrI4CellNS_14default_deleteIS2_EEEENS_9allocatorIS5_EEEC1B8ue170006Ev, symObjAddr: 0x4974, symBinAddr: 0xC0B4, symSize: 0x2C }
  - { offsetInCU: 0x10490, offset: 0x2CFF0, size: 0x8, addend: 0x0, symName: __ZNSt3__16vectorINS_10unique_ptrI4CellNS_14default_deleteIS2_EEEENS_9allocatorIS5_EEEC2B8ue170006Ev, symObjAddr: 0x49A0, symBinAddr: 0xC0E0, symSize: 0x4C }
  - { offsetInCU: 0x104B8, offset: 0x2D018, size: 0x8, addend: 0x0, symName: __ZNSt3__117__compressed_pairIPNS_10unique_ptrI4CellNS_14default_deleteIS2_EEEENS_9allocatorIS5_EEEC1B8ue170006IDnNS_18__default_init_tagEEEOT_OT0_, symObjAddr: 0x49EC, symBinAddr: 0xC12C, symSize: 0x3C }
  - { offsetInCU: 0x1050E, offset: 0x2D06E, size: 0x8, addend: 0x0, symName: __ZNSt3__117__compressed_pairIPNS_10unique_ptrI4CellNS_14default_deleteIS2_EEEENS_9allocatorIS5_EEEC2B8ue170006IDnNS_18__default_init_tagEEEOT_OT0_, symObjAddr: 0x4A28, symBinAddr: 0xC168, symSize: 0x40 }
  - { offsetInCU: 0x10564, offset: 0x2D0C4, size: 0x8, addend: 0x0, symName: __ZNSt3__122__compressed_pair_elemIPNS_10unique_ptrI4CellNS_14default_deleteIS2_EEEELi0ELb0EEC2B8ue170006IDnvEEOT_, symObjAddr: 0x4A68, symBinAddr: 0xC1A8, symSize: 0x1C }
  - { offsetInCU: 0x105A4, offset: 0x2D104, size: 0x8, addend: 0x0, symName: __ZNSt3__122__compressed_pair_elemINS_9allocatorINS_10unique_ptrI4CellNS_14default_deleteIS3_EEEEEELi1ELb1EEC2B8ue170006ENS_18__default_init_tagE, symObjAddr: 0x4A84, symBinAddr: 0xC1C4, symSize: 0x2C }
  - { offsetInCU: 0x105D6, offset: 0x2D136, size: 0x8, addend: 0x0, symName: __ZNSt3__19allocatorINS_10unique_ptrI4CellNS_14default_deleteIS2_EEEEEC2B8ue170006Ev, symObjAddr: 0x4AB0, symBinAddr: 0xC1F0, symSize: 0x2C }
  - { offsetInCU: 0x105FE, offset: 0x2D15E, size: 0x8, addend: 0x0, symName: __ZNSt3__116__non_trivial_ifILb1ENS_9allocatorINS_10unique_ptrI4CellNS_14default_deleteIS3_EEEEEEEC2B8ue170006Ev, symObjAddr: 0x4ADC, symBinAddr: 0xC21C, symSize: 0x14 }
  - { offsetInCU: 0x10626, offset: 0x2D186, size: 0x8, addend: 0x0, symName: __ZNSt3__16vectorINS0_INS_10unique_ptrI4CellNS_14default_deleteIS2_EEEENS_9allocatorIS5_EEEENS6_IS8_EEE21_ConstructTransactionD2B8ue170006Ev, symObjAddr: 0x4AF0, symBinAddr: 0xC230, symSize: 0x20 }
  - { offsetInCU: 0x1064E, offset: 0x2D1AE, size: 0x8, addend: 0x0, symName: __ZNSt3__128__exception_guard_exceptionsINS_6vectorINS1_INS_10unique_ptrI4CellNS_14default_deleteIS3_EEEENS_9allocatorIS6_EEEENS7_IS9_EEE16__destroy_vectorEED2B8ue170006Ev, symObjAddr: 0x4B10, symBinAddr: 0xC250, symSize: 0x48 }
  - { offsetInCU: 0x10676, offset: 0x2D1D6, size: 0x8, addend: 0x0, symName: __ZNSt3__16vectorINS0_INS_10unique_ptrI4CellNS_14default_deleteIS2_EEEENS_9allocatorIS5_EEEENS6_IS8_EEE13__move_assignERSA_NS_17integral_constantIbLb1EEE, symObjAddr: 0x4B58, symBinAddr: 0xC298, symSize: 0x94 }
  - { offsetInCU: 0x106B8, offset: 0x2D218, size: 0x8, addend: 0x0, symName: __ZNSt3__16vectorINS0_INS_10unique_ptrI4CellNS_14default_deleteIS2_EEEENS_9allocatorIS5_EEEENS6_IS8_EEE13__vdeallocateEv, symObjAddr: 0x4BEC, symBinAddr: 0xC32C, symSize: 0x94 }
  - { offsetInCU: 0x106DF, offset: 0x2D23F, size: 0x8, addend: 0x0, symName: __ZNSt3__16vectorINS0_INS_10unique_ptrI4CellNS_14default_deleteIS2_EEEENS_9allocatorIS5_EEEENS6_IS8_EEE19__move_assign_allocB8ue170006ERSA_, symObjAddr: 0x4C80, symBinAddr: 0xC3C0, symSize: 0x2C }
  - { offsetInCU: 0x10712, offset: 0x2D272, size: 0x8, addend: 0x0, symName: __ZNSt3__16vectorINS0_INS_10unique_ptrI4CellNS_14default_deleteIS2_EEEENS_9allocatorIS5_EEEENS6_IS8_EEE5clearB8ue170006Ev, symObjAddr: 0x4CAC, symBinAddr: 0xC3EC, symSize: 0x44 }
  - { offsetInCU: 0x10745, offset: 0x2D2A5, size: 0x8, addend: 0x0, symName: __ZNKSt3__16vectorINS0_INS_10unique_ptrI4CellNS_14default_deleteIS2_EEEENS_9allocatorIS5_EEEENS6_IS8_EEE17__annotate_shrinkB8ue170006Em, symObjAddr: 0x4CF0, symBinAddr: 0xC430, symSize: 0xD0 }
  - { offsetInCU: 0x10778, offset: 0x2D2D8, size: 0x8, addend: 0x0, symName: __ZNSt3__16vectorINS0_INS_10unique_ptrI4CellNS_14default_deleteIS2_EEEENS_9allocatorIS5_EEEENS6_IS8_EEE19__move_assign_allocB8ue170006ERSA_NS_17integral_constantIbLb1EEE, symObjAddr: 0x4DC0, symBinAddr: 0xC500, symSize: 0x38 }
  - { offsetInCU: 0x107B7, offset: 0x2D317, size: 0x8, addend: 0x0, symName: __ZNSt3__16vectorINS_10unique_ptrI4CellNS_14default_deleteIS2_EEEENS_9allocatorIS5_EEEC2Em, symObjAddr: 0x4DF8, symBinAddr: 0xC538, symSize: 0xD4 }
  - { offsetInCU: 0x10807, offset: 0x2D367, size: 0x8, addend: 0x0, symName: __ZNSt3__16vectorINS_10unique_ptrI4CellNS_14default_deleteIS2_EEEENS_9allocatorIS5_EEE16__destroy_vectorC1B8ue170006ERS8_, symObjAddr: 0x4F0C, symBinAddr: 0xC64C, symSize: 0x34 }
  - { offsetInCU: 0x1083E, offset: 0x2D39E, size: 0x8, addend: 0x0, symName: __ZNSt3__16vectorINS_10unique_ptrI4CellNS_14default_deleteIS2_EEEENS_9allocatorIS5_EEE11__vallocateB8ue170006Em, symObjAddr: 0x4F40, symBinAddr: 0xC680, symSize: 0xAC }
  - { offsetInCU: 0x10880, offset: 0x2D3E0, size: 0x8, addend: 0x0, symName: __ZNSt3__16vectorINS_10unique_ptrI4CellNS_14default_deleteIS2_EEEENS_9allocatorIS5_EEE18__construct_at_endEm, symObjAddr: 0x4FEC, symBinAddr: 0xC72C, symSize: 0xC8 }
  - { offsetInCU: 0x108F2, offset: 0x2D452, size: 0x8, addend: 0x0, symName: __ZNSt3__128__exception_guard_exceptionsINS_6vectorINS_10unique_ptrI4CellNS_14default_deleteIS3_EEEENS_9allocatorIS6_EEE16__destroy_vectorEE10__completeB8ue170006Ev, symObjAddr: 0x50B4, symBinAddr: 0xC7F4, symSize: 0x1C }
  - { offsetInCU: 0x10916, offset: 0x2D476, size: 0x8, addend: 0x0, symName: __ZNSt3__128__exception_guard_exceptionsINS_6vectorINS_10unique_ptrI4CellNS_14default_deleteIS3_EEEENS_9allocatorIS6_EEE16__destroy_vectorEED1B8ue170006Ev, symObjAddr: 0x50D0, symBinAddr: 0xC810, symSize: 0x2C }
  - { offsetInCU: 0x1093E, offset: 0x2D49E, size: 0x8, addend: 0x0, symName: __ZNSt3__128__exception_guard_exceptionsINS_6vectorINS_10unique_ptrI4CellNS_14default_deleteIS3_EEEENS_9allocatorIS6_EEE16__destroy_vectorEEC1B8ue170006ESA_, symObjAddr: 0x50FC, symBinAddr: 0xC83C, symSize: 0x34 }
  - { offsetInCU: 0x10974, offset: 0x2D4D4, size: 0x8, addend: 0x0, symName: __ZNSt3__128__exception_guard_exceptionsINS_6vectorINS_10unique_ptrI4CellNS_14default_deleteIS3_EEEENS_9allocatorIS6_EEE16__destroy_vectorEEC2B8ue170006ESA_, symObjAddr: 0x5130, symBinAddr: 0xC870, symSize: 0x24 }
  - { offsetInCU: 0x109AA, offset: 0x2D50A, size: 0x8, addend: 0x0, symName: __ZNSt3__16vectorINS_10unique_ptrI4CellNS_14default_deleteIS2_EEEENS_9allocatorIS5_EEE16__destroy_vectorC2B8ue170006ERS8_, symObjAddr: 0x5154, symBinAddr: 0xC894, symSize: 0x20 }
  - { offsetInCU: 0x109E1, offset: 0x2D541, size: 0x8, addend: 0x0, symName: __ZNKSt3__16vectorINS_10unique_ptrI4CellNS_14default_deleteIS2_EEEENS_9allocatorIS5_EEE8max_sizeEv, symObjAddr: 0x5174, symBinAddr: 0xC8B4, symSize: 0x60 }
  - { offsetInCU: 0x10A08, offset: 0x2D568, size: 0x8, addend: 0x0, symName: __ZNKSt3__16vectorINS_10unique_ptrI4CellNS_14default_deleteIS2_EEEENS_9allocatorIS5_EEE20__throw_length_errorB8ue170006Ev, symObjAddr: 0x51D4, symBinAddr: 0xC914, symSize: 0x1C }
  - { offsetInCU: 0x10A2C, offset: 0x2D58C, size: 0x8, addend: 0x0, symName: __ZNSt3__16vectorINS_10unique_ptrI4CellNS_14default_deleteIS2_EEEENS_9allocatorIS5_EEE7__allocB8ue170006Ev, symObjAddr: 0x5230, symBinAddr: 0xC970, symSize: 0x28 }
  - { offsetInCU: 0x10A50, offset: 0x2D5B0, size: 0x8, addend: 0x0, symName: __ZNSt3__16vectorINS_10unique_ptrI4CellNS_14default_deleteIS2_EEEENS_9allocatorIS5_EEE9__end_capB8ue170006Ev, symObjAddr: 0x5258, symBinAddr: 0xC998, symSize: 0x28 }
  - { offsetInCU: 0x10A74, offset: 0x2D5D4, size: 0x8, addend: 0x0, symName: __ZNKSt3__16vectorINS_10unique_ptrI4CellNS_14default_deleteIS2_EEEENS_9allocatorIS5_EEE14__annotate_newB8ue170006Em, symObjAddr: 0x5280, symBinAddr: 0xC9C0, symSize: 0xAC }
  - { offsetInCU: 0x10AB1, offset: 0x2D611, size: 0x8, addend: 0x0, symName: __ZNSt3__116allocator_traitsINS_9allocatorINS_10unique_ptrI4CellNS_14default_deleteIS3_EEEEEEE8max_sizeB8ue170006IS7_vEEmRKS7_, symObjAddr: 0x532C, symBinAddr: 0xCA6C, symSize: 0x24 }
  - { offsetInCU: 0x10ADE, offset: 0x2D63E, size: 0x8, addend: 0x0, symName: __ZNKSt3__16vectorINS_10unique_ptrI4CellNS_14default_deleteIS2_EEEENS_9allocatorIS5_EEE7__allocB8ue170006Ev, symObjAddr: 0x5350, symBinAddr: 0xCA90, symSize: 0x28 }
  - { offsetInCU: 0x10B02, offset: 0x2D662, size: 0x8, addend: 0x0, symName: __ZNKSt3__19allocatorINS_10unique_ptrI4CellNS_14default_deleteIS2_EEEEE8max_sizeB8ue170006Ev, symObjAddr: 0x5378, symBinAddr: 0xCAB8, symSize: 0x14 }
  - { offsetInCU: 0x10B26, offset: 0x2D686, size: 0x8, addend: 0x0, symName: __ZNKSt3__117__compressed_pairIPNS_10unique_ptrI4CellNS_14default_deleteIS2_EEEENS_9allocatorIS5_EEE6secondB8ue170006Ev, symObjAddr: 0x538C, symBinAddr: 0xCACC, symSize: 0x24 }
  - { offsetInCU: 0x10B4A, offset: 0x2D6AA, size: 0x8, addend: 0x0, symName: __ZNKSt3__122__compressed_pair_elemINS_9allocatorINS_10unique_ptrI4CellNS_14default_deleteIS3_EEEEEELi1ELb1EE5__getB8ue170006Ev, symObjAddr: 0x53B0, symBinAddr: 0xCAF0, symSize: 0x14 }
  - { offsetInCU: 0x10B6E, offset: 0x2D6CE, size: 0x8, addend: 0x0, symName: __ZNSt3__19allocatorINS_10unique_ptrI4CellNS_14default_deleteIS2_EEEEE8allocateB8ue170006Em, symObjAddr: 0x53C4, symBinAddr: 0xCB04, symSize: 0x58 }
  - { offsetInCU: 0x10BA0, offset: 0x2D700, size: 0x8, addend: 0x0, symName: __ZNSt3__117__compressed_pairIPNS_10unique_ptrI4CellNS_14default_deleteIS2_EEEENS_9allocatorIS5_EEE6secondB8ue170006Ev, symObjAddr: 0x541C, symBinAddr: 0xCB5C, symSize: 0x24 }
  - { offsetInCU: 0x10BC4, offset: 0x2D724, size: 0x8, addend: 0x0, symName: __ZNSt3__122__compressed_pair_elemINS_9allocatorINS_10unique_ptrI4CellNS_14default_deleteIS3_EEEEEELi1ELb1EE5__getB8ue170006Ev, symObjAddr: 0x5440, symBinAddr: 0xCB80, symSize: 0x14 }
  - { offsetInCU: 0x10BE8, offset: 0x2D748, size: 0x8, addend: 0x0, symName: __ZNSt3__117__compressed_pairIPNS_10unique_ptrI4CellNS_14default_deleteIS2_EEEENS_9allocatorIS5_EEE5firstB8ue170006Ev, symObjAddr: 0x5454, symBinAddr: 0xCB94, symSize: 0x24 }
  - { offsetInCU: 0x10C0C, offset: 0x2D76C, size: 0x8, addend: 0x0, symName: __ZNSt3__122__compressed_pair_elemIPNS_10unique_ptrI4CellNS_14default_deleteIS2_EEEELi0ELb0EE5__getB8ue170006Ev, symObjAddr: 0x5478, symBinAddr: 0xCBB8, symSize: 0x14 }
  - { offsetInCU: 0x10C30, offset: 0x2D790, size: 0x8, addend: 0x0, symName: __ZNKSt3__16vectorINS_10unique_ptrI4CellNS_14default_deleteIS2_EEEENS_9allocatorIS5_EEE31__annotate_contiguous_containerB8ue170006EPKvSA_SA_SA_, symObjAddr: 0x548C, symBinAddr: 0xCBCC, symSize: 0x20 }
  - { offsetInCU: 0x10C84, offset: 0x2D7E4, size: 0x8, addend: 0x0, symName: __ZNKSt3__16vectorINS_10unique_ptrI4CellNS_14default_deleteIS2_EEEENS_9allocatorIS5_EEE4dataB8ue170006Ev, symObjAddr: 0x54AC, symBinAddr: 0xCBEC, symSize: 0x28 }
  - { offsetInCU: 0x10CA8, offset: 0x2D808, size: 0x8, addend: 0x0, symName: __ZNKSt3__16vectorINS_10unique_ptrI4CellNS_14default_deleteIS2_EEEENS_9allocatorIS5_EEE8capacityB8ue170006Ev, symObjAddr: 0x54D4, symBinAddr: 0xCC14, symSize: 0x40 }
  - { offsetInCU: 0x10CCC, offset: 0x2D82C, size: 0x8, addend: 0x0, symName: __ZNKSt3__16vectorINS_10unique_ptrI4CellNS_14default_deleteIS2_EEEENS_9allocatorIS5_EEE9__end_capB8ue170006Ev, symObjAddr: 0x5528, symBinAddr: 0xCC68, symSize: 0x28 }
  - { offsetInCU: 0x10CF0, offset: 0x2D850, size: 0x8, addend: 0x0, symName: __ZNKSt3__117__compressed_pairIPNS_10unique_ptrI4CellNS_14default_deleteIS2_EEEENS_9allocatorIS5_EEE5firstB8ue170006Ev, symObjAddr: 0x5550, symBinAddr: 0xCC90, symSize: 0x24 }
  - { offsetInCU: 0x10D14, offset: 0x2D874, size: 0x8, addend: 0x0, symName: __ZNKSt3__122__compressed_pair_elemIPNS_10unique_ptrI4CellNS_14default_deleteIS2_EEEELi0ELb0EE5__getB8ue170006Ev, symObjAddr: 0x5574, symBinAddr: 0xCCB4, symSize: 0x14 }
  - { offsetInCU: 0x10D51, offset: 0x2D8B1, size: 0x8, addend: 0x0, symName: __ZNSt3__16vectorINS_10unique_ptrI4CellNS_14default_deleteIS2_EEEENS_9allocatorIS5_EEE21_ConstructTransactionC1B8ue170006ERS8_m, symObjAddr: 0x5588, symBinAddr: 0xCCC8, symSize: 0x3C }
  - { offsetInCU: 0x10D97, offset: 0x2D8F7, size: 0x8, addend: 0x0, symName: __ZNSt3__116allocator_traitsINS_9allocatorINS_10unique_ptrI4CellNS_14default_deleteIS3_EEEEEEE9constructB8ue170006IS6_JEvEEvRS7_PT_DpOT0_, symObjAddr: 0x55C4, symBinAddr: 0xCD04, symSize: 0x2C }
  - { offsetInCU: 0x10DD9, offset: 0x2D939, size: 0x8, addend: 0x0, symName: __ZNSt3__16vectorINS_10unique_ptrI4CellNS_14default_deleteIS2_EEEENS_9allocatorIS5_EEE21_ConstructTransactionD1B8ue170006Ev, symObjAddr: 0x55F0, symBinAddr: 0xCD30, symSize: 0x2C }
  - { offsetInCU: 0x10E01, offset: 0x2D961, size: 0x8, addend: 0x0, symName: __ZNSt3__16vectorINS_10unique_ptrI4CellNS_14default_deleteIS2_EEEENS_9allocatorIS5_EEE21_ConstructTransactionC2B8ue170006ERS8_m, symObjAddr: 0x561C, symBinAddr: 0xCD5C, symSize: 0x44 }
  - { offsetInCU: 0x10E47, offset: 0x2D9A7, size: 0x8, addend: 0x0, symName: __ZNSt3__19allocatorINS_10unique_ptrI4CellNS_14default_deleteIS2_EEEEE9constructB8ue170006IS5_JEEEvPT_DpOT0_, symObjAddr: 0x5660, symBinAddr: 0xCDA0, symSize: 0x28 }
  - { offsetInCU: 0x10E88, offset: 0x2D9E8, size: 0x8, addend: 0x0, symName: __ZNSt3__110unique_ptrI4CellNS_14default_deleteIS1_EEEC1B8ue170006ILb1EvEEv, symObjAddr: 0x5688, symBinAddr: 0xCDC8, symSize: 0x2C }
  - { offsetInCU: 0x10EBB, offset: 0x2DA1B, size: 0x8, addend: 0x0, symName: __ZNSt3__110unique_ptrI4CellNS_14default_deleteIS1_EEEC2B8ue170006ILb1EvEEv, symObjAddr: 0x56B4, symBinAddr: 0xCDF4, symSize: 0x3C }
  - { offsetInCU: 0x10EF3, offset: 0x2DA53, size: 0x8, addend: 0x0, symName: __ZNSt3__117__compressed_pairIP4CellNS_14default_deleteIS1_EEEC1B8ue170006INS_16__value_init_tagES7_EEOT_OT0_, symObjAddr: 0x56F0, symBinAddr: 0xCE30, symSize: 0x3C }
  - { offsetInCU: 0x10F49, offset: 0x2DAA9, size: 0x8, addend: 0x0, symName: __ZNSt3__117__compressed_pairIP4CellNS_14default_deleteIS1_EEEC2B8ue170006INS_16__value_init_tagES7_EEOT_OT0_, symObjAddr: 0x572C, symBinAddr: 0xCE6C, symSize: 0x3C }
  - { offsetInCU: 0x10F9F, offset: 0x2DAFF, size: 0x8, addend: 0x0, symName: __ZNSt3__122__compressed_pair_elemIP4CellLi0ELb0EEC2B8ue170006ENS_16__value_init_tagE, symObjAddr: 0x5768, symBinAddr: 0xCEA8, symSize: 0x18 }
  - { offsetInCU: 0x10FD1, offset: 0x2DB31, size: 0x8, addend: 0x0, symName: __ZNSt3__16vectorINS_10unique_ptrI4CellNS_14default_deleteIS2_EEEENS_9allocatorIS5_EEE21_ConstructTransactionD2B8ue170006Ev, symObjAddr: 0x5794, symBinAddr: 0xCEC0, symSize: 0x20 }
  - { offsetInCU: 0x10FF9, offset: 0x2DB59, size: 0x8, addend: 0x0, symName: __ZNSt3__128__exception_guard_exceptionsINS_6vectorINS_10unique_ptrI4CellNS_14default_deleteIS3_EEEENS_9allocatorIS6_EEE16__destroy_vectorEED2B8ue170006Ev, symObjAddr: 0x57B4, symBinAddr: 0xCEE0, symSize: 0x50 }
  - { offsetInCU: 0x11021, offset: 0x2DB81, size: 0x8, addend: 0x0, symName: __ZNSt3__16vectorINS_10unique_ptrI4CellNS_14default_deleteIS2_EEEENS_9allocatorIS5_EEE16__destroy_vectorclB8ue170006Ev, symObjAddr: 0x5804, symBinAddr: 0xCF30, symSize: 0x90 }
  - { offsetInCU: 0x11045, offset: 0x2DBA5, size: 0x8, addend: 0x0, symName: __ZNSt3__16vectorINS_10unique_ptrI4CellNS_14default_deleteIS2_EEEENS_9allocatorIS5_EEE7__clearB8ue170006Ev, symObjAddr: 0x5894, symBinAddr: 0xCFC0, symSize: 0x28 }
  - { offsetInCU: 0x11069, offset: 0x2DBC9, size: 0x8, addend: 0x0, symName: __ZNKSt3__16vectorINS_10unique_ptrI4CellNS_14default_deleteIS2_EEEENS_9allocatorIS5_EEE17__annotate_deleteB8ue170006Ev, symObjAddr: 0x58BC, symBinAddr: 0xCFE8, symSize: 0xB8 }
  - { offsetInCU: 0x1108D, offset: 0x2DBED, size: 0x8, addend: 0x0, symName: __ZNSt3__116allocator_traitsINS_9allocatorINS_10unique_ptrI4CellNS_14default_deleteIS3_EEEEEEE10deallocateB8ue170006ERS7_PS6_m, symObjAddr: 0x5974, symBinAddr: 0xD0A0, symSize: 0x34 }
  - { offsetInCU: 0x110CE, offset: 0x2DC2E, size: 0x8, addend: 0x0, symName: __ZNSt3__16vectorINS_10unique_ptrI4CellNS_14default_deleteIS2_EEEENS_9allocatorIS5_EEE22__base_destruct_at_endB8ue170006EPS5_, symObjAddr: 0x59A8, symBinAddr: 0xD0D4, symSize: 0x8C }
  - { offsetInCU: 0x11110, offset: 0x2DC70, size: 0x8, addend: 0x0, symName: __ZNSt3__116allocator_traitsINS_9allocatorINS_10unique_ptrI4CellNS_14default_deleteIS3_EEEEEEE7destroyB8ue170006IS6_vEEvRS7_PT_, symObjAddr: 0x5A34, symBinAddr: 0xD160, symSize: 0x2C }
  - { offsetInCU: 0x1114C, offset: 0x2DCAC, size: 0x8, addend: 0x0, symName: __ZNSt3__19allocatorINS_10unique_ptrI4CellNS_14default_deleteIS2_EEEEE7destroyB8ue170006EPS5_, symObjAddr: 0x5A60, symBinAddr: 0xD18C, symSize: 0x28 }
  - { offsetInCU: 0x1117E, offset: 0x2DCDE, size: 0x8, addend: 0x0, symName: __ZNKSt3__16vectorINS_10unique_ptrI4CellNS_14default_deleteIS2_EEEENS_9allocatorIS5_EEE4sizeB8ue170006Ev, symObjAddr: 0x5A88, symBinAddr: 0xD1B4, symSize: 0x28 }
  - { offsetInCU: 0x111A2, offset: 0x2DD02, size: 0x8, addend: 0x0, symName: __ZNSt3__19allocatorINS_10unique_ptrI4CellNS_14default_deleteIS2_EEEEE10deallocateB8ue170006EPS5_m, symObjAddr: 0x5AB0, symBinAddr: 0xD1DC, symSize: 0x40 }
  - { offsetInCU: 0x111E2, offset: 0x2DD42, size: 0x8, addend: 0x0, symName: __ZNSt3__16vectorINS_10unique_ptrI4CellNS_14default_deleteIS2_EEEENS_9allocatorIS5_EEED2B8ue170006Ev, symObjAddr: 0x5AF0, symBinAddr: 0xD21C, symSize: 0x40 }
  - { offsetInCU: 0x1120A, offset: 0x2DD6A, size: 0x8, addend: 0x0, symName: __ZNSt3__16vectorINS_10unique_ptrI4CellNS_14default_deleteIS2_EEEENS_9allocatorIS5_EEE13__move_assignERS8_NS_17integral_constantIbLb1EEE, symObjAddr: 0x5B30, symBinAddr: 0xD25C, symSize: 0x94 }
  - { offsetInCU: 0x1124C, offset: 0x2DDAC, size: 0x8, addend: 0x0, symName: __ZNSt3__16vectorINS_10unique_ptrI4CellNS_14default_deleteIS2_EEEENS_9allocatorIS5_EEE13__vdeallocateEv, symObjAddr: 0x5BC4, symBinAddr: 0xD2F0, symSize: 0x94 }
  - { offsetInCU: 0x11273, offset: 0x2DDD3, size: 0x8, addend: 0x0, symName: __ZNSt3__16vectorINS_10unique_ptrI4CellNS_14default_deleteIS2_EEEENS_9allocatorIS5_EEE19__move_assign_allocB8ue170006ERS8_, symObjAddr: 0x5C58, symBinAddr: 0xD384, symSize: 0x2C }
  - { offsetInCU: 0x112A6, offset: 0x2DE06, size: 0x8, addend: 0x0, symName: __ZNSt3__16vectorINS_10unique_ptrI4CellNS_14default_deleteIS2_EEEENS_9allocatorIS5_EEE5clearB8ue170006Ev, symObjAddr: 0x5C84, symBinAddr: 0xD3B0, symSize: 0x44 }
  - { offsetInCU: 0x112D9, offset: 0x2DE39, size: 0x8, addend: 0x0, symName: __ZNKSt3__16vectorINS_10unique_ptrI4CellNS_14default_deleteIS2_EEEENS_9allocatorIS5_EEE17__annotate_shrinkB8ue170006Em, symObjAddr: 0x5CC8, symBinAddr: 0xD3F4, symSize: 0xB4 }
  - { offsetInCU: 0x1130C, offset: 0x2DE6C, size: 0x8, addend: 0x0, symName: __ZNSt3__16vectorINS_10unique_ptrI4CellNS_14default_deleteIS2_EEEENS_9allocatorIS5_EEE19__move_assign_allocB8ue170006ERS8_NS_17integral_constantIbLb1EEE, symObjAddr: 0x5D7C, symBinAddr: 0xD4A8, symSize: 0x38 }
  - { offsetInCU: 0x1134B, offset: 0x2DEAB, size: 0x8, addend: 0x0, symName: __ZNSt3__110unique_ptrI4CellNS_14default_deleteIS1_EEED2B8ue170006Ev, symObjAddr: 0x5ECC, symBinAddr: 0xD4E0, symSize: 0x30 }
  - { offsetInCU: 0x11373, offset: 0x2DED3, size: 0x8, addend: 0x0, symName: __ZNSt3__110unique_ptrI4CellNS_14default_deleteIS1_EEE5resetB8ue170006EPS1_, symObjAddr: 0x5EFC, symBinAddr: 0xD510, symSize: 0x78 }
  - { offsetInCU: 0x113B5, offset: 0x2DF15, size: 0x8, addend: 0x0, symName: __ZNSt3__117__compressed_pairIP4CellNS_14default_deleteIS1_EEE5firstB8ue170006Ev, symObjAddr: 0x5F74, symBinAddr: 0xD588, symSize: 0x24 }
  - { offsetInCU: 0x113D9, offset: 0x2DF39, size: 0x8, addend: 0x0, symName: __ZNSt3__117__compressed_pairIP4CellNS_14default_deleteIS1_EEE6secondB8ue170006Ev, symObjAddr: 0x5F98, symBinAddr: 0xD5AC, symSize: 0x24 }
  - { offsetInCU: 0x113FD, offset: 0x2DF5D, size: 0x8, addend: 0x0, symName: __ZNKSt3__114default_deleteI4CellEclB8ue170006EPS1_, symObjAddr: 0x5FBC, symBinAddr: 0xD5D0, symSize: 0x4C }
  - { offsetInCU: 0x1142F, offset: 0x2DF8F, size: 0x8, addend: 0x0, symName: __ZNSt3__122__compressed_pair_elemIP4CellLi0ELb0EE5__getB8ue170006Ev, symObjAddr: 0x6008, symBinAddr: 0xD61C, symSize: 0x14 }
  - { offsetInCU: 0x11453, offset: 0x2DFB3, size: 0x8, addend: 0x0, symName: __ZNSt3__122__compressed_pair_elemINS_14default_deleteI4CellEELi1ELb1EE5__getB8ue170006Ev, symObjAddr: 0x601C, symBinAddr: 0xD630, symSize: 0x14 }
  - { offsetInCU: 0x11477, offset: 0x2DFD7, size: 0x8, addend: 0x0, symName: __ZNSt3__16vectorINS0_INS_10unique_ptrI4CellNS_14default_deleteIS2_EEEENS_9allocatorIS5_EEEENS6_IS8_EEEC2B8ue170006EOSA_, symObjAddr: 0x6030, symBinAddr: 0xD644, symSize: 0xC4 }
  - { offsetInCU: 0x114B6, offset: 0x2E016, size: 0x8, addend: 0x0, symName: __ZNSt3__117__compressed_pairIPNS_6vectorINS_10unique_ptrI4CellNS_14default_deleteIS3_EEEENS_9allocatorIS6_EEEENS7_IS9_EEEC1B8ue170006IDnSB_EEOT_OT0_, symObjAddr: 0x60F4, symBinAddr: 0xD708, symSize: 0x3C }
  - { offsetInCU: 0x1150C, offset: 0x2E06C, size: 0x8, addend: 0x0, symName: __ZNSt3__117__compressed_pairIPNS_6vectorINS_10unique_ptrI4CellNS_14default_deleteIS3_EEEENS_9allocatorIS6_EEEENS7_IS9_EEEC2B8ue170006IDnSB_EEOT_OT0_, symObjAddr: 0x6130, symBinAddr: 0xD744, symSize: 0x44 }
  - { offsetInCU: 0x11562, offset: 0x2E0C2, size: 0x8, addend: 0x0, symName: __ZNSt3__122__compressed_pair_elemINS_9allocatorINS_6vectorINS_10unique_ptrI4CellNS_14default_deleteIS4_EEEENS1_IS7_EEEEEELi1ELb1EEC2B8ue170006ISA_vEEOT_, symObjAddr: 0x6174, symBinAddr: 0xD788, symSize: 0x18 }
  - { offsetInCU: 0x115A2, offset: 0x2E102, size: 0x8, addend: 0x0, symName: __ZNSt3__110unique_ptrI4CellNS_14default_deleteIS1_EEE7releaseB8ue170006Ev, symObjAddr: 0x618C, symBinAddr: 0xD7A0, symSize: 0x44 }
  - { offsetInCU: 0x115D5, offset: 0x2E135, size: 0x8, addend: 0x0, symName: __ZNSt3__110unique_ptrI4CellNS_14default_deleteIS1_EEE11get_deleterB8ue170006Ev, symObjAddr: 0x61D0, symBinAddr: 0xD7E4, symSize: 0x24 }
  - { offsetInCU: 0x115F9, offset: 0x2E159, size: 0x8, addend: 0x0, symName: __ZNKSt3__117__compressed_pairIP4CellNS_14default_deleteIS1_EEE5firstB8ue170006Ev, symObjAddr: 0x61F4, symBinAddr: 0xD808, symSize: 0x24 }
  - { offsetInCU: 0x1161D, offset: 0x2E17D, size: 0x8, addend: 0x0, symName: __ZNKSt3__122__compressed_pair_elemIP4CellLi0ELb0EE5__getB8ue170006Ev, symObjAddr: 0x6218, symBinAddr: 0xD82C, symSize: 0x14 }
  - { offsetInCU: 0x1165F, offset: 0x2E1BF, size: 0x8, addend: 0x0, symName: __ZNKSt3__113basic_ostreamIcNS_11char_traitsIcEEE6sentrycvbB8ue170006Ev, symObjAddr: 0x644C, symBinAddr: 0xDA2C, symSize: 0x1C }
  - { offsetInCU: 0x11683, offset: 0x2E1E3, size: 0x8, addend: 0x0, symName: __ZNSt3__119ostreambuf_iteratorIcNS_11char_traitsIcEEEC1B8ue170006ERNS_13basic_ostreamIcS2_EE, symObjAddr: 0x66A8, symBinAddr: 0xDC88, symSize: 0x34 }
  - { offsetInCU: 0x116B9, offset: 0x2E219, size: 0x8, addend: 0x0, symName: __ZNKSt3__18ios_base5flagsB8ue170006Ev, symObjAddr: 0x66DC, symBinAddr: 0xDCBC, symSize: 0x18 }
  - { offsetInCU: 0x116E0, offset: 0x2E240, size: 0x8, addend: 0x0, symName: __ZNKSt3__19basic_iosIcNS_11char_traitsIcEEE4fillB8ue170006Ev, symObjAddr: 0x66F4, symBinAddr: 0xDCD4, symSize: 0x64 }
  - { offsetInCU: 0x11707, offset: 0x2E267, size: 0x8, addend: 0x0, symName: __ZNKSt3__119ostreambuf_iteratorIcNS_11char_traitsIcEEE6failedB8ue170006Ev, symObjAddr: 0x6758, symBinAddr: 0xDD38, symSize: 0x24 }
  - { offsetInCU: 0x1172B, offset: 0x2E28B, size: 0x8, addend: 0x0, symName: __ZNSt3__19basic_iosIcNS_11char_traitsIcEEE8setstateB8ue170006Ej, symObjAddr: 0x677C, symBinAddr: 0xDD5C, symSize: 0x2C }
  - { offsetInCU: 0x1175E, offset: 0x2E2BE, size: 0x8, addend: 0x0, symName: __ZNKSt3__18ios_base5widthB8ue170006Ev, symObjAddr: 0x67A8, symBinAddr: 0xDD88, symSize: 0x18 }
  - { offsetInCU: 0x11785, offset: 0x2E2E5, size: 0x8, addend: 0x0, symName: __ZNSt3__115basic_streambufIcNS_11char_traitsIcEEE5sputnB8ue170006EPKcl, symObjAddr: 0x67C0, symBinAddr: 0xDDA0, symSize: 0x3C }
  - { offsetInCU: 0x117C5, offset: 0x2E325, size: 0x8, addend: 0x0, symName: __ZNSt3__112basic_stringIcNS_11char_traitsIcEENS_9allocatorIcEEEC1B8ue170006Emc, symObjAddr: 0x67FC, symBinAddr: 0xDDDC, symSize: 0x3C }
  - { offsetInCU: 0x1180B, offset: 0x2E36B, size: 0x8, addend: 0x0, symName: __ZNSt3__112basic_stringIcNS_11char_traitsIcEENS_9allocatorIcEEE4dataB8ue170006Ev, symObjAddr: 0x6838, symBinAddr: 0xDE18, symSize: 0x28 }
  - { offsetInCU: 0x1182F, offset: 0x2E38F, size: 0x8, addend: 0x0, symName: __ZNSt3__18ios_base5widthB8ue170006El, symObjAddr: 0x6860, symBinAddr: 0xDE40, symSize: 0x2C }
  - { offsetInCU: 0x11874, offset: 0x2E3D4, size: 0x8, addend: 0x0, symName: __ZNSt3__112basic_stringIcNS_11char_traitsIcEENS_9allocatorIcEEEC2B8ue170006Emc, symObjAddr: 0x688C, symBinAddr: 0xDE6C, symSize: 0x4C }
  - { offsetInCU: 0x118BA, offset: 0x2E41A, size: 0x8, addend: 0x0, symName: __ZNSt3__112basic_stringIcNS_11char_traitsIcEENS_9allocatorIcEEE13__get_pointerB8ue170006Ev, symObjAddr: 0x69E4, symBinAddr: 0xDECC, symSize: 0x54 }
  - { offsetInCU: 0x118DE, offset: 0x2E43E, size: 0x8, addend: 0x0, symName: __ZNSt3__112basic_stringIcNS_11char_traitsIcEENS_9allocatorIcEEE18__get_long_pointerB8ue170006Ev, symObjAddr: 0x6A70, symBinAddr: 0xDF20, symSize: 0x28 }
  - { offsetInCU: 0x11902, offset: 0x2E462, size: 0x8, addend: 0x0, symName: __ZNSt3__112basic_stringIcNS_11char_traitsIcEENS_9allocatorIcEEE19__get_short_pointerB8ue170006Ev, symObjAddr: 0x6A98, symBinAddr: 0xDF48, symSize: 0x28 }
  - { offsetInCU: 0x11926, offset: 0x2E486, size: 0x8, addend: 0x0, symName: __ZNSt3__114pointer_traitsIPcE10pointer_toB8ue170006ERc, symObjAddr: 0x6B30, symBinAddr: 0xDF70, symSize: 0x14 }
  - { offsetInCU: 0x11948, offset: 0x2E4A8, size: 0x8, addend: 0x0, symName: __ZNSt3__119ostreambuf_iteratorIcNS_11char_traitsIcEEEC2B8ue170006ERNS_13basic_ostreamIcS2_EE, symObjAddr: 0x6B44, symBinAddr: 0xDF84, symSize: 0x54 }
  - { offsetInCU: 0x1197E, offset: 0x2E4DE, size: 0x8, addend: 0x0, symName: __ZNKSt3__19basic_iosIcNS_11char_traitsIcEEE5rdbufB8ue170006Ev, symObjAddr: 0x6B98, symBinAddr: 0xDFD8, symSize: 0x24 }
  - { offsetInCU: 0x119A5, offset: 0x2E505, size: 0x8, addend: 0x0, symName: __ZNKSt3__18ios_base5rdbufB8ue170006Ev, symObjAddr: 0x6BBC, symBinAddr: 0xDFFC, symSize: 0x18 }
  - { offsetInCU: 0x119C9, offset: 0x2E529, size: 0x8, addend: 0x0, symName: __ZNSt3__111char_traitsIcE11eq_int_typeB8ue170006Eii, symObjAddr: 0x6BD4, symBinAddr: 0xE014, symSize: 0x28 }
  - { offsetInCU: 0x119FB, offset: 0x2E55B, size: 0x8, addend: 0x0, symName: __ZNSt3__111char_traitsIcE3eofB8ue170006Ev, symObjAddr: 0x6BFC, symBinAddr: 0xE03C, symSize: 0x8 }
  - { offsetInCU: 0x11A0F, offset: 0x2E56F, size: 0x8, addend: 0x0, symName: __ZNKSt3__19basic_iosIcNS_11char_traitsIcEEE5widenB8ue170006Ec, symObjAddr: 0x6C04, symBinAddr: 0xE044, symSize: 0x84 }
  - { offsetInCU: 0x11A77, offset: 0x2E5D7, size: 0x8, addend: 0x0, symName: __ZNKSt3__15ctypeIcE5widenB8ue170006Ec, symObjAddr: 0x6CB4, symBinAddr: 0xE0F4, symSize: 0x38 }
  - { offsetInCU: 0x11AAA, offset: 0x2E60A, size: 0x8, addend: 0x0, symName: __ZNSt3__18ios_base8setstateB8ue170006Ej, symObjAddr: 0x6CEC, symBinAddr: 0xE12C, symSize: 0x34 }
  - { offsetInCU: 0x11AE0, offset: 0x2E640, size: 0x8, addend: 0x0, symName: __ZNSt3__16vectorIiNS_9allocatorIiEEEC2EmRKi, symObjAddr: 0x6EE8, symBinAddr: 0xE160, symSize: 0xDC }
  - { offsetInCU: 0x11B3F, offset: 0x2E69F, size: 0x8, addend: 0x0, symName: __ZNSt3__117__compressed_pairIPiNS_9allocatorIiEEEC1B8ue170006IDnNS_18__default_init_tagEEEOT_OT0_, symObjAddr: 0x6FC4, symBinAddr: 0xE23C, symSize: 0x3C }
  - { offsetInCU: 0x11B95, offset: 0x2E6F5, size: 0x8, addend: 0x0, symName: __ZNSt3__16vectorIiNS_9allocatorIiEEE16__destroy_vectorC1B8ue170006ERS3_, symObjAddr: 0x7040, symBinAddr: 0xE2B8, symSize: 0x34 }
  - { offsetInCU: 0x11BCC, offset: 0x2E72C, size: 0x8, addend: 0x0, symName: __ZNSt3__16vectorIiNS_9allocatorIiEEE11__vallocateB8ue170006Em, symObjAddr: 0x7074, symBinAddr: 0xE2EC, symSize: 0xAC }
  - { offsetInCU: 0x11C0E, offset: 0x2E76E, size: 0x8, addend: 0x0, symName: __ZNSt3__16vectorIiNS_9allocatorIiEEE18__construct_at_endEmRKi, symObjAddr: 0x7120, symBinAddr: 0xE398, symSize: 0xD0 }
  - { offsetInCU: 0x11C8F, offset: 0x2E7EF, size: 0x8, addend: 0x0, symName: __ZNSt3__128__exception_guard_exceptionsINS_6vectorIiNS_9allocatorIiEEE16__destroy_vectorEE10__completeB8ue170006Ev, symObjAddr: 0x71F0, symBinAddr: 0xE468, symSize: 0x1C }
  - { offsetInCU: 0x11CB3, offset: 0x2E813, size: 0x8, addend: 0x0, symName: __ZNSt3__128__exception_guard_exceptionsINS_6vectorIiNS_9allocatorIiEEE16__destroy_vectorEED1B8ue170006Ev, symObjAddr: 0x720C, symBinAddr: 0xE484, symSize: 0x2C }
  - { offsetInCU: 0x11CDB, offset: 0x2E83B, size: 0x8, addend: 0x0, symName: __ZNSt3__117__compressed_pairIPiNS_9allocatorIiEEEC2B8ue170006IDnNS_18__default_init_tagEEEOT_OT0_, symObjAddr: 0x7238, symBinAddr: 0xE4B0, symSize: 0x40 }
  - { offsetInCU: 0x11D31, offset: 0x2E891, size: 0x8, addend: 0x0, symName: __ZNSt3__122__compressed_pair_elemIPiLi0ELb0EEC2B8ue170006IDnvEEOT_, symObjAddr: 0x7278, symBinAddr: 0xE4F0, symSize: 0x1C }
  - { offsetInCU: 0x11D71, offset: 0x2E8D1, size: 0x8, addend: 0x0, symName: __ZNSt3__122__compressed_pair_elemINS_9allocatorIiEELi1ELb1EEC2B8ue170006ENS_18__default_init_tagE, symObjAddr: 0x7294, symBinAddr: 0xE50C, symSize: 0x2C }
  - { offsetInCU: 0x11DA3, offset: 0x2E903, size: 0x8, addend: 0x0, symName: __ZNSt3__19allocatorIiEC2B8ue170006Ev, symObjAddr: 0x72C0, symBinAddr: 0xE538, symSize: 0x2C }
  - { offsetInCU: 0x11DCB, offset: 0x2E92B, size: 0x8, addend: 0x0, symName: __ZNSt3__116__non_trivial_ifILb1ENS_9allocatorIiEEEC2B8ue170006Ev, symObjAddr: 0x72EC, symBinAddr: 0xE564, symSize: 0x14 }
  - { offsetInCU: 0x11DF3, offset: 0x2E953, size: 0x8, addend: 0x0, symName: __ZNSt3__128__exception_guard_exceptionsINS_6vectorIiNS_9allocatorIiEEE16__destroy_vectorEEC1B8ue170006ES5_, symObjAddr: 0x7300, symBinAddr: 0xE578, symSize: 0x34 }
  - { offsetInCU: 0x11E29, offset: 0x2E989, size: 0x8, addend: 0x0, symName: __ZNSt3__128__exception_guard_exceptionsINS_6vectorIiNS_9allocatorIiEEE16__destroy_vectorEEC2B8ue170006ES5_, symObjAddr: 0x7334, symBinAddr: 0xE5AC, symSize: 0x24 }
  - { offsetInCU: 0x11E5F, offset: 0x2E9BF, size: 0x8, addend: 0x0, symName: __ZNSt3__16vectorIiNS_9allocatorIiEEE16__destroy_vectorC2B8ue170006ERS3_, symObjAddr: 0x7358, symBinAddr: 0xE5D0, symSize: 0x20 }
  - { offsetInCU: 0x11E96, offset: 0x2E9F6, size: 0x8, addend: 0x0, symName: __ZNKSt3__16vectorIiNS_9allocatorIiEEE8max_sizeEv, symObjAddr: 0x7378, symBinAddr: 0xE5F0, symSize: 0x60 }
  - { offsetInCU: 0x11EBD, offset: 0x2EA1D, size: 0x8, addend: 0x0, symName: __ZNKSt3__16vectorIiNS_9allocatorIiEEE20__throw_length_errorB8ue170006Ev, symObjAddr: 0x73D8, symBinAddr: 0xE650, symSize: 0x1C }
  - { offsetInCU: 0x11EE1, offset: 0x2EA41, size: 0x8, addend: 0x0, symName: __ZNSt3__16vectorIiNS_9allocatorIiEEE7__allocB8ue170006Ev, symObjAddr: 0x7434, symBinAddr: 0xE6AC, symSize: 0x28 }
  - { offsetInCU: 0x11F05, offset: 0x2EA65, size: 0x8, addend: 0x0, symName: __ZNSt3__16vectorIiNS_9allocatorIiEEE9__end_capB8ue170006Ev, symObjAddr: 0x745C, symBinAddr: 0xE6D4, symSize: 0x28 }
  - { offsetInCU: 0x11F29, offset: 0x2EA89, size: 0x8, addend: 0x0, symName: __ZNKSt3__16vectorIiNS_9allocatorIiEEE14__annotate_newB8ue170006Em, symObjAddr: 0x7484, symBinAddr: 0xE6FC, symSize: 0xAC }
  - { offsetInCU: 0x11F66, offset: 0x2EAC6, size: 0x8, addend: 0x0, symName: __ZNSt3__116allocator_traitsINS_9allocatorIiEEE8max_sizeB8ue170006IS2_vEEmRKS2_, symObjAddr: 0x7530, symBinAddr: 0xE7A8, symSize: 0x24 }
  - { offsetInCU: 0x11F93, offset: 0x2EAF3, size: 0x8, addend: 0x0, symName: __ZNKSt3__16vectorIiNS_9allocatorIiEEE7__allocB8ue170006Ev, symObjAddr: 0x7554, symBinAddr: 0xE7CC, symSize: 0x28 }
  - { offsetInCU: 0x11FB7, offset: 0x2EB17, size: 0x8, addend: 0x0, symName: __ZNKSt3__19allocatorIiE8max_sizeB8ue170006Ev, symObjAddr: 0x757C, symBinAddr: 0xE7F4, symSize: 0x14 }
  - { offsetInCU: 0x11FDB, offset: 0x2EB3B, size: 0x8, addend: 0x0, symName: __ZNKSt3__117__compressed_pairIPiNS_9allocatorIiEEE6secondB8ue170006Ev, symObjAddr: 0x7590, symBinAddr: 0xE808, symSize: 0x24 }
  - { offsetInCU: 0x11FFF, offset: 0x2EB5F, size: 0x8, addend: 0x0, symName: __ZNKSt3__122__compressed_pair_elemINS_9allocatorIiEELi1ELb1EE5__getB8ue170006Ev, symObjAddr: 0x75B4, symBinAddr: 0xE82C, symSize: 0x14 }
  - { offsetInCU: 0x12023, offset: 0x2EB83, size: 0x8, addend: 0x0, symName: __ZNSt3__19allocatorIiE8allocateB8ue170006Em, symObjAddr: 0x75C8, symBinAddr: 0xE840, symSize: 0x58 }
  - { offsetInCU: 0x12055, offset: 0x2EBB5, size: 0x8, addend: 0x0, symName: __ZNSt3__117__compressed_pairIPiNS_9allocatorIiEEE6secondB8ue170006Ev, symObjAddr: 0x7620, symBinAddr: 0xE898, symSize: 0x24 }
  - { offsetInCU: 0x12079, offset: 0x2EBD9, size: 0x8, addend: 0x0, symName: __ZNSt3__122__compressed_pair_elemINS_9allocatorIiEELi1ELb1EE5__getB8ue170006Ev, symObjAddr: 0x7644, symBinAddr: 0xE8BC, symSize: 0x14 }
  - { offsetInCU: 0x1209D, offset: 0x2EBFD, size: 0x8, addend: 0x0, symName: __ZNSt3__117__compressed_pairIPiNS_9allocatorIiEEE5firstB8ue170006Ev, symObjAddr: 0x7658, symBinAddr: 0xE8D0, symSize: 0x24 }
  - { offsetInCU: 0x120C1, offset: 0x2EC21, size: 0x8, addend: 0x0, symName: __ZNSt3__122__compressed_pair_elemIPiLi0ELb0EE5__getB8ue170006Ev, symObjAddr: 0x767C, symBinAddr: 0xE8F4, symSize: 0x14 }
  - { offsetInCU: 0x120E5, offset: 0x2EC45, size: 0x8, addend: 0x0, symName: __ZNKSt3__16vectorIiNS_9allocatorIiEEE31__annotate_contiguous_containerB8ue170006EPKvS5_S5_S5_, symObjAddr: 0x7690, symBinAddr: 0xE908, symSize: 0x20 }
  - { offsetInCU: 0x12139, offset: 0x2EC99, size: 0x8, addend: 0x0, symName: __ZNKSt3__16vectorIiNS_9allocatorIiEEE4dataB8ue170006Ev, symObjAddr: 0x76B0, symBinAddr: 0xE928, symSize: 0x28 }
  - { offsetInCU: 0x1215D, offset: 0x2ECBD, size: 0x8, addend: 0x0, symName: __ZNKSt3__16vectorIiNS_9allocatorIiEEE8capacityB8ue170006Ev, symObjAddr: 0x76D8, symBinAddr: 0xE950, symSize: 0x40 }
  - { offsetInCU: 0x12181, offset: 0x2ECE1, size: 0x8, addend: 0x0, symName: __ZNKSt3__16vectorIiNS_9allocatorIiEEE9__end_capB8ue170006Ev, symObjAddr: 0x772C, symBinAddr: 0xE9A4, symSize: 0x28 }
  - { offsetInCU: 0x121A5, offset: 0x2ED05, size: 0x8, addend: 0x0, symName: __ZNKSt3__117__compressed_pairIPiNS_9allocatorIiEEE5firstB8ue170006Ev, symObjAddr: 0x7754, symBinAddr: 0xE9CC, symSize: 0x24 }
  - { offsetInCU: 0x121C9, offset: 0x2ED29, size: 0x8, addend: 0x0, symName: __ZNKSt3__122__compressed_pair_elemIPiLi0ELb0EE5__getB8ue170006Ev, symObjAddr: 0x7778, symBinAddr: 0xE9F0, symSize: 0x14 }
  - { offsetInCU: 0x12206, offset: 0x2ED66, size: 0x8, addend: 0x0, symName: __ZNSt3__16vectorIiNS_9allocatorIiEEE21_ConstructTransactionC1B8ue170006ERS3_m, symObjAddr: 0x778C, symBinAddr: 0xEA04, symSize: 0x3C }
  - { offsetInCU: 0x1224C, offset: 0x2EDAC, size: 0x8, addend: 0x0, symName: __ZNSt3__116allocator_traitsINS_9allocatorIiEEE9constructB8ue170006IiJRKiEvEEvRS2_PT_DpOT0_, symObjAddr: 0x77C8, symBinAddr: 0xEA40, symSize: 0x34 }
  - { offsetInCU: 0x122A2, offset: 0x2EE02, size: 0x8, addend: 0x0, symName: __ZNSt3__16vectorIiNS_9allocatorIiEEE21_ConstructTransactionD1B8ue170006Ev, symObjAddr: 0x77FC, symBinAddr: 0xEA74, symSize: 0x2C }
  - { offsetInCU: 0x122CA, offset: 0x2EE2A, size: 0x8, addend: 0x0, symName: __ZNSt3__16vectorIiNS_9allocatorIiEEE21_ConstructTransactionC2B8ue170006ERS3_m, symObjAddr: 0x7828, symBinAddr: 0xEAA0, symSize: 0x44 }
  - { offsetInCU: 0x12310, offset: 0x2EE70, size: 0x8, addend: 0x0, symName: __ZNSt3__19allocatorIiE9constructB8ue170006IiJRKiEEEvPT_DpOT0_, symObjAddr: 0x786C, symBinAddr: 0xEAE4, symSize: 0x28 }
  - { offsetInCU: 0x12364, offset: 0x2EEC4, size: 0x8, addend: 0x0, symName: __ZNSt3__16vectorIiNS_9allocatorIiEEE21_ConstructTransactionD2B8ue170006Ev, symObjAddr: 0x7894, symBinAddr: 0xEB0C, symSize: 0x20 }
  - { offsetInCU: 0x1238C, offset: 0x2EEEC, size: 0x8, addend: 0x0, symName: __ZNSt3__128__exception_guard_exceptionsINS_6vectorIiNS_9allocatorIiEEE16__destroy_vectorEED2B8ue170006Ev, symObjAddr: 0x78B4, symBinAddr: 0xEB2C, symSize: 0x50 }
  - { offsetInCU: 0x123B4, offset: 0x2EF14, size: 0x8, addend: 0x0, symName: __ZNSt3__16vectorIiNS_9allocatorIiEEE16__destroy_vectorclB8ue170006Ev, symObjAddr: 0x7904, symBinAddr: 0xEB7C, symSize: 0x90 }
  - { offsetInCU: 0x123D8, offset: 0x2EF38, size: 0x8, addend: 0x0, symName: __ZNSt3__16vectorIiNS_9allocatorIiEEE7__clearB8ue170006Ev, symObjAddr: 0x7994, symBinAddr: 0xEC0C, symSize: 0x28 }
  - { offsetInCU: 0x123FC, offset: 0x2EF5C, size: 0x8, addend: 0x0, symName: __ZNKSt3__16vectorIiNS_9allocatorIiEEE17__annotate_deleteB8ue170006Ev, symObjAddr: 0x79BC, symBinAddr: 0xEC34, symSize: 0xB8 }
  - { offsetInCU: 0x12420, offset: 0x2EF80, size: 0x8, addend: 0x0, symName: __ZNSt3__116allocator_traitsINS_9allocatorIiEEE10deallocateB8ue170006ERS2_Pim, symObjAddr: 0x7A74, symBinAddr: 0xECEC, symSize: 0x34 }
  - { offsetInCU: 0x12461, offset: 0x2EFC1, size: 0x8, addend: 0x0, symName: __ZNSt3__16vectorIiNS_9allocatorIiEEE22__base_destruct_at_endB8ue170006EPi, symObjAddr: 0x7AA8, symBinAddr: 0xED20, symSize: 0x8C }
  - { offsetInCU: 0x124A3, offset: 0x2F003, size: 0x8, addend: 0x0, symName: __ZNSt3__116allocator_traitsINS_9allocatorIiEEE7destroyB8ue170006IivEEvRS2_PT_, symObjAddr: 0x7B34, symBinAddr: 0xEDAC, symSize: 0x2C }
  - { offsetInCU: 0x124DF, offset: 0x2F03F, size: 0x8, addend: 0x0, symName: __ZNSt3__19allocatorIiE7destroyB8ue170006EPi, symObjAddr: 0x7B60, symBinAddr: 0xEDD8, symSize: 0x14 }
  - { offsetInCU: 0x12511, offset: 0x2F071, size: 0x8, addend: 0x0, symName: __ZNKSt3__16vectorIiNS_9allocatorIiEEE4sizeB8ue170006Ev, symObjAddr: 0x7B74, symBinAddr: 0xEDEC, symSize: 0x28 }
  - { offsetInCU: 0x12535, offset: 0x2F095, size: 0x8, addend: 0x0, symName: __ZNSt3__19allocatorIiE10deallocateB8ue170006EPim, symObjAddr: 0x7B9C, symBinAddr: 0xEE14, symSize: 0x40 }
  - { offsetInCU: 0x12575, offset: 0x2F0D5, size: 0x8, addend: 0x0, symName: __ZNSt3__16vectorIiNS_9allocatorIiEEED2B8ue170006Ev, symObjAddr: 0x7BDC, symBinAddr: 0xEE54, symSize: 0x40 }
  - { offsetInCU: 0x1259D, offset: 0x2F0FD, size: 0x8, addend: 0x0, symName: __ZNSt3__16vectorINS0_IiNS_9allocatorIiEEEENS1_IS3_EEEC2EmRKS3_, symObjAddr: 0x7C1C, symBinAddr: 0xEE94, symSize: 0xDC }
  - { offsetInCU: 0x125FC, offset: 0x2F15C, size: 0x8, addend: 0x0, symName: __ZNSt3__117__compressed_pairIPNS_6vectorIiNS_9allocatorIiEEEENS2_IS4_EEEC1B8ue170006IDnNS_18__default_init_tagEEEOT_OT0_, symObjAddr: 0x7CF8, symBinAddr: 0xEF70, symSize: 0x3C }
  - { offsetInCU: 0x12652, offset: 0x2F1B2, size: 0x8, addend: 0x0, symName: __ZNSt3__16vectorINS0_IiNS_9allocatorIiEEEENS1_IS3_EEE16__destroy_vectorC1B8ue170006ERS5_, symObjAddr: 0x7D74, symBinAddr: 0xEFEC, symSize: 0x34 }
  - { offsetInCU: 0x12689, offset: 0x2F1E9, size: 0x8, addend: 0x0, symName: __ZNSt3__16vectorINS0_IiNS_9allocatorIiEEEENS1_IS3_EEE11__vallocateB8ue170006Em, symObjAddr: 0x7DA8, symBinAddr: 0xF020, symSize: 0xB4 }
  - { offsetInCU: 0x126CB, offset: 0x2F22B, size: 0x8, addend: 0x0, symName: __ZNSt3__16vectorINS0_IiNS_9allocatorIiEEEENS1_IS3_EEE18__construct_at_endEmRKS3_, symObjAddr: 0x7E5C, symBinAddr: 0xF0D4, symSize: 0xD0 }
  - { offsetInCU: 0x1274C, offset: 0x2F2AC, size: 0x8, addend: 0x0, symName: __ZNSt3__128__exception_guard_exceptionsINS_6vectorINS1_IiNS_9allocatorIiEEEENS2_IS4_EEE16__destroy_vectorEE10__completeB8ue170006Ev, symObjAddr: 0x7F2C, symBinAddr: 0xF1A4, symSize: 0x1C }
  - { offsetInCU: 0x12770, offset: 0x2F2D0, size: 0x8, addend: 0x0, symName: __ZNSt3__128__exception_guard_exceptionsINS_6vectorINS1_IiNS_9allocatorIiEEEENS2_IS4_EEE16__destroy_vectorEED1B8ue170006Ev, symObjAddr: 0x7F48, symBinAddr: 0xF1C0, symSize: 0x2C }
  - { offsetInCU: 0x12798, offset: 0x2F2F8, size: 0x8, addend: 0x0, symName: __ZNSt3__117__compressed_pairIPNS_6vectorIiNS_9allocatorIiEEEENS2_IS4_EEEC2B8ue170006IDnNS_18__default_init_tagEEEOT_OT0_, symObjAddr: 0x7F74, symBinAddr: 0xF1EC, symSize: 0x40 }
  - { offsetInCU: 0x127EE, offset: 0x2F34E, size: 0x8, addend: 0x0, symName: __ZNSt3__122__compressed_pair_elemIPNS_6vectorIiNS_9allocatorIiEEEELi0ELb0EEC2B8ue170006IDnvEEOT_, symObjAddr: 0x7FB4, symBinAddr: 0xF22C, symSize: 0x1C }
  - { offsetInCU: 0x1282E, offset: 0x2F38E, size: 0x8, addend: 0x0, symName: __ZNSt3__122__compressed_pair_elemINS_9allocatorINS_6vectorIiNS1_IiEEEEEELi1ELb1EEC2B8ue170006ENS_18__default_init_tagE, symObjAddr: 0x7FD0, symBinAddr: 0xF248, symSize: 0x2C }
  - { offsetInCU: 0x12860, offset: 0x2F3C0, size: 0x8, addend: 0x0, symName: __ZNSt3__19allocatorINS_6vectorIiNS0_IiEEEEEC2B8ue170006Ev, symObjAddr: 0x7FFC, symBinAddr: 0xF274, symSize: 0x2C }
  - { offsetInCU: 0x12888, offset: 0x2F3E8, size: 0x8, addend: 0x0, symName: __ZNSt3__116__non_trivial_ifILb1ENS_9allocatorINS_6vectorIiNS1_IiEEEEEEEC2B8ue170006Ev, symObjAddr: 0x8028, symBinAddr: 0xF2A0, symSize: 0x14 }
  - { offsetInCU: 0x128B0, offset: 0x2F410, size: 0x8, addend: 0x0, symName: __ZNSt3__128__exception_guard_exceptionsINS_6vectorINS1_IiNS_9allocatorIiEEEENS2_IS4_EEE16__destroy_vectorEEC1B8ue170006ES7_, symObjAddr: 0x803C, symBinAddr: 0xF2B4, symSize: 0x34 }
  - { offsetInCU: 0x128E6, offset: 0x2F446, size: 0x8, addend: 0x0, symName: __ZNSt3__128__exception_guard_exceptionsINS_6vectorINS1_IiNS_9allocatorIiEEEENS2_IS4_EEE16__destroy_vectorEEC2B8ue170006ES7_, symObjAddr: 0x8070, symBinAddr: 0xF2E8, symSize: 0x24 }
  - { offsetInCU: 0x1291C, offset: 0x2F47C, size: 0x8, addend: 0x0, symName: __ZNSt3__16vectorINS0_IiNS_9allocatorIiEEEENS1_IS3_EEE16__destroy_vectorC2B8ue170006ERS5_, symObjAddr: 0x8094, symBinAddr: 0xF30C, symSize: 0x20 }
  - { offsetInCU: 0x12953, offset: 0x2F4B3, size: 0x8, addend: 0x0, symName: __ZNKSt3__16vectorINS0_IiNS_9allocatorIiEEEENS1_IS3_EEE8max_sizeEv, symObjAddr: 0x80B4, symBinAddr: 0xF32C, symSize: 0x60 }
  - { offsetInCU: 0x1297A, offset: 0x2F4DA, size: 0x8, addend: 0x0, symName: __ZNKSt3__16vectorINS0_IiNS_9allocatorIiEEEENS1_IS3_EEE20__throw_length_errorB8ue170006Ev, symObjAddr: 0x8114, symBinAddr: 0xF38C, symSize: 0x1C }
  - { offsetInCU: 0x1299E, offset: 0x2F4FE, size: 0x8, addend: 0x0, symName: __ZNSt3__16vectorINS0_IiNS_9allocatorIiEEEENS1_IS3_EEE7__allocB8ue170006Ev, symObjAddr: 0x8170, symBinAddr: 0xF3E8, symSize: 0x28 }
  - { offsetInCU: 0x129C2, offset: 0x2F522, size: 0x8, addend: 0x0, symName: __ZNSt3__16vectorINS0_IiNS_9allocatorIiEEEENS1_IS3_EEE9__end_capB8ue170006Ev, symObjAddr: 0x8198, symBinAddr: 0xF410, symSize: 0x28 }
  - { offsetInCU: 0x129E6, offset: 0x2F546, size: 0x8, addend: 0x0, symName: __ZNKSt3__16vectorINS0_IiNS_9allocatorIiEEEENS1_IS3_EEE14__annotate_newB8ue170006Em, symObjAddr: 0x81C0, symBinAddr: 0xF438, symSize: 0xC8 }
  - { offsetInCU: 0x12A23, offset: 0x2F583, size: 0x8, addend: 0x0, symName: __ZNSt3__116allocator_traitsINS_9allocatorINS_6vectorIiNS1_IiEEEEEEE8max_sizeB8ue170006IS5_vEEmRKS5_, symObjAddr: 0x8288, symBinAddr: 0xF500, symSize: 0x24 }
  - { offsetInCU: 0x12A50, offset: 0x2F5B0, size: 0x8, addend: 0x0, symName: __ZNKSt3__16vectorINS0_IiNS_9allocatorIiEEEENS1_IS3_EEE7__allocB8ue170006Ev, symObjAddr: 0x82AC, symBinAddr: 0xF524, symSize: 0x28 }
  - { offsetInCU: 0x12A74, offset: 0x2F5D4, size: 0x8, addend: 0x0, symName: __ZNKSt3__19allocatorINS_6vectorIiNS0_IiEEEEE8max_sizeB8ue170006Ev, symObjAddr: 0x82D4, symBinAddr: 0xF54C, symSize: 0x18 }
  - { offsetInCU: 0x12A98, offset: 0x2F5F8, size: 0x8, addend: 0x0, symName: __ZNKSt3__117__compressed_pairIPNS_6vectorIiNS_9allocatorIiEEEENS2_IS4_EEE6secondB8ue170006Ev, symObjAddr: 0x82EC, symBinAddr: 0xF564, symSize: 0x24 }
  - { offsetInCU: 0x12ABC, offset: 0x2F61C, size: 0x8, addend: 0x0, symName: __ZNKSt3__122__compressed_pair_elemINS_9allocatorINS_6vectorIiNS1_IiEEEEEELi1ELb1EE5__getB8ue170006Ev, symObjAddr: 0x8310, symBinAddr: 0xF588, symSize: 0x14 }
  - { offsetInCU: 0x12AE0, offset: 0x2F640, size: 0x8, addend: 0x0, symName: __ZNSt3__19allocatorINS_6vectorIiNS0_IiEEEEE8allocateB8ue170006Em, symObjAddr: 0x8324, symBinAddr: 0xF59C, symSize: 0x5C }
  - { offsetInCU: 0x12B12, offset: 0x2F672, size: 0x8, addend: 0x0, symName: __ZNSt3__117__compressed_pairIPNS_6vectorIiNS_9allocatorIiEEEENS2_IS4_EEE6secondB8ue170006Ev, symObjAddr: 0x8380, symBinAddr: 0xF5F8, symSize: 0x24 }
  - { offsetInCU: 0x12B36, offset: 0x2F696, size: 0x8, addend: 0x0, symName: __ZNSt3__122__compressed_pair_elemINS_9allocatorINS_6vectorIiNS1_IiEEEEEELi1ELb1EE5__getB8ue170006Ev, symObjAddr: 0x83A4, symBinAddr: 0xF61C, symSize: 0x14 }
  - { offsetInCU: 0x12B5A, offset: 0x2F6BA, size: 0x8, addend: 0x0, symName: __ZNSt3__117__compressed_pairIPNS_6vectorIiNS_9allocatorIiEEEENS2_IS4_EEE5firstB8ue170006Ev, symObjAddr: 0x83B8, symBinAddr: 0xF630, symSize: 0x24 }
  - { offsetInCU: 0x12B7E, offset: 0x2F6DE, size: 0x8, addend: 0x0, symName: __ZNSt3__122__compressed_pair_elemIPNS_6vectorIiNS_9allocatorIiEEEELi0ELb0EE5__getB8ue170006Ev, symObjAddr: 0x83DC, symBinAddr: 0xF654, symSize: 0x14 }
  - { offsetInCU: 0x12BA2, offset: 0x2F702, size: 0x8, addend: 0x0, symName: __ZNKSt3__16vectorINS0_IiNS_9allocatorIiEEEENS1_IS3_EEE31__annotate_contiguous_containerB8ue170006EPKvS7_S7_S7_, symObjAddr: 0x83F0, symBinAddr: 0xF668, symSize: 0x20 }
  - { offsetInCU: 0x12BF6, offset: 0x2F756, size: 0x8, addend: 0x0, symName: __ZNKSt3__16vectorINS0_IiNS_9allocatorIiEEEENS1_IS3_EEE4dataB8ue170006Ev, symObjAddr: 0x8410, symBinAddr: 0xF688, symSize: 0x28 }
  - { offsetInCU: 0x12C1A, offset: 0x2F77A, size: 0x8, addend: 0x0, symName: __ZNKSt3__16vectorINS0_IiNS_9allocatorIiEEEENS1_IS3_EEE8capacityB8ue170006Ev, symObjAddr: 0x8438, symBinAddr: 0xF6B0, symSize: 0x40 }
  - { offsetInCU: 0x12C3E, offset: 0x2F79E, size: 0x8, addend: 0x0, symName: __ZNKSt3__16vectorINS0_IiNS_9allocatorIiEEEENS1_IS3_EEE9__end_capB8ue170006Ev, symObjAddr: 0x848C, symBinAddr: 0xF704, symSize: 0x28 }
  - { offsetInCU: 0x12C62, offset: 0x2F7C2, size: 0x8, addend: 0x0, symName: __ZNKSt3__117__compressed_pairIPNS_6vectorIiNS_9allocatorIiEEEENS2_IS4_EEE5firstB8ue170006Ev, symObjAddr: 0x84B4, symBinAddr: 0xF72C, symSize: 0x24 }
  - { offsetInCU: 0x12C86, offset: 0x2F7E6, size: 0x8, addend: 0x0, symName: __ZNKSt3__122__compressed_pair_elemIPNS_6vectorIiNS_9allocatorIiEEEELi0ELb0EE5__getB8ue170006Ev, symObjAddr: 0x84D8, symBinAddr: 0xF750, symSize: 0x14 }
  - { offsetInCU: 0x12CC3, offset: 0x2F823, size: 0x8, addend: 0x0, symName: __ZNSt3__16vectorINS0_IiNS_9allocatorIiEEEENS1_IS3_EEE21_ConstructTransactionC1B8ue170006ERS5_m, symObjAddr: 0x84EC, symBinAddr: 0xF764, symSize: 0x3C }
  - { offsetInCU: 0x12D09, offset: 0x2F869, size: 0x8, addend: 0x0, symName: __ZNSt3__116allocator_traitsINS_9allocatorINS_6vectorIiNS1_IiEEEEEEE9constructB8ue170006IS4_JRKS4_EvEEvRS5_PT_DpOT0_, symObjAddr: 0x8528, symBinAddr: 0xF7A0, symSize: 0x34 }
  - { offsetInCU: 0x12D5F, offset: 0x2F8BF, size: 0x8, addend: 0x0, symName: __ZNSt3__16vectorINS0_IiNS_9allocatorIiEEEENS1_IS3_EEE21_ConstructTransactionD1B8ue170006Ev, symObjAddr: 0x855C, symBinAddr: 0xF7D4, symSize: 0x2C }
  - { offsetInCU: 0x12D87, offset: 0x2F8E7, size: 0x8, addend: 0x0, symName: __ZNSt3__16vectorINS0_IiNS_9allocatorIiEEEENS1_IS3_EEE21_ConstructTransactionC2B8ue170006ERS5_m, symObjAddr: 0x8588, symBinAddr: 0xF800, symSize: 0x4C }
  - { offsetInCU: 0x12DCD, offset: 0x2F92D, size: 0x8, addend: 0x0, symName: __ZNSt3__19allocatorINS_6vectorIiNS0_IiEEEEE9constructB8ue170006IS3_JRKS3_EEEvPT_DpOT0_, symObjAddr: 0x85D4, symBinAddr: 0xF84C, symSize: 0x30 }
  - { offsetInCU: 0x12E21, offset: 0x2F981, size: 0x8, addend: 0x0, symName: __ZNSt3__16vectorIiNS_9allocatorIiEEEC1ERKS3_, symObjAddr: 0x8604, symBinAddr: 0xF87C, symSize: 0x34 }
  - { offsetInCU: 0x12E5B, offset: 0x2F9BB, size: 0x8, addend: 0x0, symName: __ZNSt3__16vectorIiNS_9allocatorIiEEEC2ERKS3_, symObjAddr: 0x8638, symBinAddr: 0xF8B0, symSize: 0x94 }
  - { offsetInCU: 0x12E95, offset: 0x2F9F5, size: 0x8, addend: 0x0, symName: __ZNSt3__116allocator_traitsINS_9allocatorIiEEE37select_on_container_copy_constructionB8ue170006IS2_vvEES2_RKS2_, symObjAddr: 0x86CC, symBinAddr: 0xF944, symSize: 0x10 }
  - { offsetInCU: 0x12EC8, offset: 0x2FA28, size: 0x8, addend: 0x0, symName: __ZNSt3__117__compressed_pairIPiNS_9allocatorIiEEEC1B8ue170006IDnS3_EEOT_OT0_, symObjAddr: 0x86DC, symBinAddr: 0xF954, symSize: 0x3C }
  - { offsetInCU: 0x12F1E, offset: 0x2FA7E, size: 0x8, addend: 0x0, symName: __ZNSt3__16vectorIiNS_9allocatorIiEEE16__init_with_sizeB8ue170006IPiS5_EEvT_T0_m, symObjAddr: 0x8718, symBinAddr: 0xF990, symSize: 0xB8 }
  - { offsetInCU: 0x12F90, offset: 0x2FAF0, size: 0x8, addend: 0x0, symName: __ZNSt3__117__compressed_pairIPiNS_9allocatorIiEEEC2B8ue170006IDnS3_EEOT_OT0_, symObjAddr: 0x87D0, symBinAddr: 0xFA48, symSize: 0x44 }
  - { offsetInCU: 0x12FE6, offset: 0x2FB46, size: 0x8, addend: 0x0, symName: __ZNSt3__122__compressed_pair_elemINS_9allocatorIiEELi1ELb1EEC2B8ue170006IS2_vEEOT_, symObjAddr: 0x8814, symBinAddr: 0xFA8C, symSize: 0x18 }
  - { offsetInCU: 0x13026, offset: 0x2FB86, size: 0x8, addend: 0x0, symName: __ZNSt3__16vectorIiNS_9allocatorIiEEE18__construct_at_endIPiS5_EEvT_T0_m, symObjAddr: 0x882C, symBinAddr: 0xFAA4, symSize: 0x8C }
  - { offsetInCU: 0x130B9, offset: 0x2FC19, size: 0x8, addend: 0x0, symName: __ZNSt3__14pairIPiS1_EC1B8ue170006IS1_S1_LPv0EEEOT_OT0_, symObjAddr: 0x8A68, symBinAddr: 0xFCE0, symSize: 0x3C }
  - { offsetInCU: 0x13115, offset: 0x2FC75, size: 0x8, addend: 0x0, symName: __ZNSt3__14pairIPiS1_EC2B8ue170006IS1_S1_LPv0EEEOT_OT0_, symObjAddr: 0x8AA4, symBinAddr: 0xFD1C, symSize: 0x34 }
  - { offsetInCU: 0x1317B, offset: 0x2FCDB, size: 0x8, addend: 0x0, symName: __ZNKSt3__114__copy_trivialclB8ue170006IiiLi0EEENS_4pairIPT_PT0_EES4_S4_S6_, symObjAddr: 0x8C54, symBinAddr: 0xFECC, symSize: 0x48 }
  - { offsetInCU: 0x131E1, offset: 0x2FD41, size: 0x8, addend: 0x0, symName: __ZNSt3__14pairIPiS1_EC1B8ue170006IRS1_S1_LPv0EEEOT_OT0_, symObjAddr: 0x8DE4, symBinAddr: 0x1005C, symSize: 0x3C }
  - { offsetInCU: 0x1323D, offset: 0x2FD9D, size: 0x8, addend: 0x0, symName: __ZNSt3__14pairIPiS1_EC2B8ue170006IRS1_S1_LPv0EEEOT_OT0_, symObjAddr: 0x8E20, symBinAddr: 0x10098, symSize: 0x34 }
  - { offsetInCU: 0x13299, offset: 0x2FDF9, size: 0x8, addend: 0x0, symName: __ZNSt3__118__unwrap_iter_implIPiLb1EE8__unwrapB8ue170006ES1_, symObjAddr: 0x8E54, symBinAddr: 0x100CC, symSize: 0x24 }
  - { offsetInCU: 0x132BB, offset: 0x2FE1B, size: 0x8, addend: 0x0, symName: __ZNSt3__118__unwrap_iter_implIPiLb1EE8__rewrapB8ue170006ES1_S1_, symObjAddr: 0x8E78, symBinAddr: 0x100F0, symSize: 0x50 }
  - { offsetInCU: 0x132EB, offset: 0x2FE4B, size: 0x8, addend: 0x0, symName: __ZNSt3__16vectorINS0_IiNS_9allocatorIiEEEENS1_IS3_EEE21_ConstructTransactionD2B8ue170006Ev, symObjAddr: 0x8EC8, symBinAddr: 0x10140, symSize: 0x20 }
  - { offsetInCU: 0x13313, offset: 0x2FE73, size: 0x8, addend: 0x0, symName: __ZNSt3__128__exception_guard_exceptionsINS_6vectorINS1_IiNS_9allocatorIiEEEENS2_IS4_EEE16__destroy_vectorEED2B8ue170006Ev, symObjAddr: 0x8EE8, symBinAddr: 0x10160, symSize: 0x50 }
  - { offsetInCU: 0x1333B, offset: 0x2FE9B, size: 0x8, addend: 0x0, symName: __ZNSt3__16vectorINS0_IiNS_9allocatorIiEEEENS1_IS3_EEE16__destroy_vectorclB8ue170006Ev, symObjAddr: 0x8F38, symBinAddr: 0x101B0, symSize: 0x90 }
  - { offsetInCU: 0x1335F, offset: 0x2FEBF, size: 0x8, addend: 0x0, symName: __ZNSt3__16vectorINS0_IiNS_9allocatorIiEEEENS1_IS3_EEE7__clearB8ue170006Ev, symObjAddr: 0x8FC8, symBinAddr: 0x10240, symSize: 0x28 }
  - { offsetInCU: 0x13383, offset: 0x2FEE3, size: 0x8, addend: 0x0, symName: __ZNKSt3__16vectorINS0_IiNS_9allocatorIiEEEENS1_IS3_EEE17__annotate_deleteB8ue170006Ev, symObjAddr: 0x8FF0, symBinAddr: 0x10268, symSize: 0xD4 }
  - { offsetInCU: 0x133A7, offset: 0x2FF07, size: 0x8, addend: 0x0, symName: __ZNSt3__116allocator_traitsINS_9allocatorINS_6vectorIiNS1_IiEEEEEEE10deallocateB8ue170006ERS5_PS4_m, symObjAddr: 0x90C4, symBinAddr: 0x1033C, symSize: 0x34 }
  - { offsetInCU: 0x133E8, offset: 0x2FF48, size: 0x8, addend: 0x0, symName: __ZNSt3__16vectorINS0_IiNS_9allocatorIiEEEENS1_IS3_EEE22__base_destruct_at_endB8ue170006EPS3_, symObjAddr: 0x90F8, symBinAddr: 0x10370, symSize: 0x8C }
  - { offsetInCU: 0x1342A, offset: 0x2FF8A, size: 0x8, addend: 0x0, symName: __ZNSt3__116allocator_traitsINS_9allocatorINS_6vectorIiNS1_IiEEEEEEE7destroyB8ue170006IS4_vEEvRS5_PT_, symObjAddr: 0x9184, symBinAddr: 0x103FC, symSize: 0x2C }
  - { offsetInCU: 0x13466, offset: 0x2FFC6, size: 0x8, addend: 0x0, symName: __ZNSt3__19allocatorINS_6vectorIiNS0_IiEEEEE7destroyB8ue170006EPS3_, symObjAddr: 0x91B0, symBinAddr: 0x10428, symSize: 0x28 }
  - { offsetInCU: 0x13498, offset: 0x2FFF8, size: 0x8, addend: 0x0, symName: __ZNKSt3__16vectorINS0_IiNS_9allocatorIiEEEENS1_IS3_EEE4sizeB8ue170006Ev, symObjAddr: 0x91D8, symBinAddr: 0x10450, symSize: 0x28 }
  - { offsetInCU: 0x134BC, offset: 0x3001C, size: 0x8, addend: 0x0, symName: __ZNSt3__19allocatorINS_6vectorIiNS0_IiEEEEE10deallocateB8ue170006EPS3_m, symObjAddr: 0x9200, symBinAddr: 0x10478, symSize: 0x44 }
  - { offsetInCU: 0x134FC, offset: 0x3005C, size: 0x8, addend: 0x0, symName: __ZNSt3__16vectorINS0_IiNS_9allocatorIiEEEENS1_IS3_EEED2B8ue170006Ev, symObjAddr: 0x9244, symBinAddr: 0x104BC, symSize: 0x40 }
  - { offsetInCU: 0x13524, offset: 0x30084, size: 0x8, addend: 0x0, symName: __ZNSt3__16vectorINS0_INS0_IiNS_9allocatorIiEEEENS1_IS3_EEEENS1_IS5_EEEC2EmRKS5_, symObjAddr: 0x9284, symBinAddr: 0x104FC, symSize: 0xDC }
  - { offsetInCU: 0x13583, offset: 0x300E3, size: 0x8, addend: 0x0, symName: __ZNSt3__117__compressed_pairIPNS_6vectorINS1_IiNS_9allocatorIiEEEENS2_IS4_EEEENS2_IS6_EEEC1B8ue170006IDnNS_18__default_init_tagEEEOT_OT0_, symObjAddr: 0x9360, symBinAddr: 0x105D8, symSize: 0x3C }
  - { offsetInCU: 0x135D9, offset: 0x30139, size: 0x8, addend: 0x0, symName: __ZNSt3__16vectorINS0_INS0_IiNS_9allocatorIiEEEENS1_IS3_EEEENS1_IS5_EEE16__destroy_vectorC1B8ue170006ERS7_, symObjAddr: 0x93DC, symBinAddr: 0x10654, symSize: 0x34 }
  - { offsetInCU: 0x13610, offset: 0x30170, size: 0x8, addend: 0x0, symName: __ZNSt3__16vectorINS0_INS0_IiNS_9allocatorIiEEEENS1_IS3_EEEENS1_IS5_EEE11__vallocateB8ue170006Em, symObjAddr: 0x9410, symBinAddr: 0x10688, symSize: 0xB4 }
  - { offsetInCU: 0x13652, offset: 0x301B2, size: 0x8, addend: 0x0, symName: __ZNSt3__16vectorINS0_INS0_IiNS_9allocatorIiEEEENS1_IS3_EEEENS1_IS5_EEE18__construct_at_endEmRKS5_, symObjAddr: 0x94C4, symBinAddr: 0x1073C, symSize: 0xD0 }
  - { offsetInCU: 0x136D3, offset: 0x30233, size: 0x8, addend: 0x0, symName: __ZNSt3__128__exception_guard_exceptionsINS_6vectorINS1_INS1_IiNS_9allocatorIiEEEENS2_IS4_EEEENS2_IS6_EEE16__destroy_vectorEE10__completeB8ue170006Ev, symObjAddr: 0x9594, symBinAddr: 0x1080C, symSize: 0x1C }
  - { offsetInCU: 0x136F7, offset: 0x30257, size: 0x8, addend: 0x0, symName: __ZNSt3__128__exception_guard_exceptionsINS_6vectorINS1_INS1_IiNS_9allocatorIiEEEENS2_IS4_EEEENS2_IS6_EEE16__destroy_vectorEED1B8ue170006Ev, symObjAddr: 0x95B0, symBinAddr: 0x10828, symSize: 0x2C }
  - { offsetInCU: 0x1371F, offset: 0x3027F, size: 0x8, addend: 0x0, symName: __ZNSt3__117__compressed_pairIPNS_6vectorINS1_IiNS_9allocatorIiEEEENS2_IS4_EEEENS2_IS6_EEEC2B8ue170006IDnNS_18__default_init_tagEEEOT_OT0_, symObjAddr: 0x95DC, symBinAddr: 0x10854, symSize: 0x40 }
  - { offsetInCU: 0x13775, offset: 0x302D5, size: 0x8, addend: 0x0, symName: __ZNSt3__122__compressed_pair_elemIPNS_6vectorINS1_IiNS_9allocatorIiEEEENS2_IS4_EEEELi0ELb0EEC2B8ue170006IDnvEEOT_, symObjAddr: 0x961C, symBinAddr: 0x10894, symSize: 0x1C }
  - { offsetInCU: 0x137B5, offset: 0x30315, size: 0x8, addend: 0x0, symName: __ZNSt3__122__compressed_pair_elemINS_9allocatorINS_6vectorINS2_IiNS1_IiEEEENS1_IS4_EEEEEELi1ELb1EEC2B8ue170006ENS_18__default_init_tagE, symObjAddr: 0x9638, symBinAddr: 0x108B0, symSize: 0x2C }
  - { offsetInCU: 0x137E7, offset: 0x30347, size: 0x8, addend: 0x0, symName: __ZNSt3__19allocatorINS_6vectorINS1_IiNS0_IiEEEENS0_IS3_EEEEEC2B8ue170006Ev, symObjAddr: 0x9664, symBinAddr: 0x108DC, symSize: 0x2C }
  - { offsetInCU: 0x1380F, offset: 0x3036F, size: 0x8, addend: 0x0, symName: __ZNSt3__116__non_trivial_ifILb1ENS_9allocatorINS_6vectorINS2_IiNS1_IiEEEENS1_IS4_EEEEEEEC2B8ue170006Ev, symObjAddr: 0x9690, symBinAddr: 0x10908, symSize: 0x14 }
  - { offsetInCU: 0x13837, offset: 0x30397, size: 0x8, addend: 0x0, symName: __ZNSt3__128__exception_guard_exceptionsINS_6vectorINS1_INS1_IiNS_9allocatorIiEEEENS2_IS4_EEEENS2_IS6_EEE16__destroy_vectorEEC1B8ue170006ES9_, symObjAddr: 0x96A4, symBinAddr: 0x1091C, symSize: 0x34 }
  - { offsetInCU: 0x1386D, offset: 0x303CD, size: 0x8, addend: 0x0, symName: __ZNSt3__128__exception_guard_exceptionsINS_6vectorINS1_INS1_IiNS_9allocatorIiEEEENS2_IS4_EEEENS2_IS6_EEE16__destroy_vectorEEC2B8ue170006ES9_, symObjAddr: 0x96D8, symBinAddr: 0x10950, symSize: 0x24 }
  - { offsetInCU: 0x138A3, offset: 0x30403, size: 0x8, addend: 0x0, symName: __ZNSt3__16vectorINS0_INS0_IiNS_9allocatorIiEEEENS1_IS3_EEEENS1_IS5_EEE16__destroy_vectorC2B8ue170006ERS7_, symObjAddr: 0x96FC, symBinAddr: 0x10974, symSize: 0x20 }
  - { offsetInCU: 0x138DA, offset: 0x3043A, size: 0x8, addend: 0x0, symName: __ZNKSt3__16vectorINS0_INS0_IiNS_9allocatorIiEEEENS1_IS3_EEEENS1_IS5_EEE8max_sizeEv, symObjAddr: 0x971C, symBinAddr: 0x10994, symSize: 0x60 }
  - { offsetInCU: 0x13901, offset: 0x30461, size: 0x8, addend: 0x0, symName: __ZNKSt3__16vectorINS0_INS0_IiNS_9allocatorIiEEEENS1_IS3_EEEENS1_IS5_EEE20__throw_length_errorB8ue170006Ev, symObjAddr: 0x977C, symBinAddr: 0x109F4, symSize: 0x1C }
  - { offsetInCU: 0x13925, offset: 0x30485, size: 0x8, addend: 0x0, symName: __ZNSt3__16vectorINS0_INS0_IiNS_9allocatorIiEEEENS1_IS3_EEEENS1_IS5_EEE7__allocB8ue170006Ev, symObjAddr: 0x97D8, symBinAddr: 0x10A50, symSize: 0x28 }
  - { offsetInCU: 0x13949, offset: 0x304A9, size: 0x8, addend: 0x0, symName: __ZNSt3__16vectorINS0_INS0_IiNS_9allocatorIiEEEENS1_IS3_EEEENS1_IS5_EEE9__end_capB8ue170006Ev, symObjAddr: 0x9800, symBinAddr: 0x10A78, symSize: 0x28 }
  - { offsetInCU: 0x1396D, offset: 0x304CD, size: 0x8, addend: 0x0, symName: __ZNKSt3__16vectorINS0_INS0_IiNS_9allocatorIiEEEENS1_IS3_EEEENS1_IS5_EEE14__annotate_newB8ue170006Em, symObjAddr: 0x9828, symBinAddr: 0x10AA0, symSize: 0xC8 }
  - { offsetInCU: 0x139AA, offset: 0x3050A, size: 0x8, addend: 0x0, symName: __ZNSt3__116allocator_traitsINS_9allocatorINS_6vectorINS2_IiNS1_IiEEEENS1_IS4_EEEEEEE8max_sizeB8ue170006IS7_vEEmRKS7_, symObjAddr: 0x98F0, symBinAddr: 0x10B68, symSize: 0x24 }
  - { offsetInCU: 0x139D7, offset: 0x30537, size: 0x8, addend: 0x0, symName: __ZNKSt3__16vectorINS0_INS0_IiNS_9allocatorIiEEEENS1_IS3_EEEENS1_IS5_EEE7__allocB8ue170006Ev, symObjAddr: 0x9914, symBinAddr: 0x10B8C, symSize: 0x28 }
  - { offsetInCU: 0x139FB, offset: 0x3055B, size: 0x8, addend: 0x0, symName: __ZNKSt3__19allocatorINS_6vectorINS1_IiNS0_IiEEEENS0_IS3_EEEEE8max_sizeB8ue170006Ev, symObjAddr: 0x993C, symBinAddr: 0x10BB4, symSize: 0x18 }
  - { offsetInCU: 0x13A1F, offset: 0x3057F, size: 0x8, addend: 0x0, symName: __ZNKSt3__117__compressed_pairIPNS_6vectorINS1_IiNS_9allocatorIiEEEENS2_IS4_EEEENS2_IS6_EEE6secondB8ue170006Ev, symObjAddr: 0x9954, symBinAddr: 0x10BCC, symSize: 0x24 }
  - { offsetInCU: 0x13A43, offset: 0x305A3, size: 0x8, addend: 0x0, symName: __ZNKSt3__122__compressed_pair_elemINS_9allocatorINS_6vectorINS2_IiNS1_IiEEEENS1_IS4_EEEEEELi1ELb1EE5__getB8ue170006Ev, symObjAddr: 0x9978, symBinAddr: 0x10BF0, symSize: 0x14 }
  - { offsetInCU: 0x13A67, offset: 0x305C7, size: 0x8, addend: 0x0, symName: __ZNSt3__19allocatorINS_6vectorINS1_IiNS0_IiEEEENS0_IS3_EEEEE8allocateB8ue170006Em, symObjAddr: 0x998C, symBinAddr: 0x10C04, symSize: 0x5C }
  - { offsetInCU: 0x13A99, offset: 0x305F9, size: 0x8, addend: 0x0, symName: __ZNSt3__117__compressed_pairIPNS_6vectorINS1_IiNS_9allocatorIiEEEENS2_IS4_EEEENS2_IS6_EEE6secondB8ue170006Ev, symObjAddr: 0x99E8, symBinAddr: 0x10C60, symSize: 0x24 }
  - { offsetInCU: 0x13ABD, offset: 0x3061D, size: 0x8, addend: 0x0, symName: __ZNSt3__122__compressed_pair_elemINS_9allocatorINS_6vectorINS2_IiNS1_IiEEEENS1_IS4_EEEEEELi1ELb1EE5__getB8ue170006Ev, symObjAddr: 0x9A0C, symBinAddr: 0x10C84, symSize: 0x14 }
  - { offsetInCU: 0x13AE1, offset: 0x30641, size: 0x8, addend: 0x0, symName: __ZNSt3__117__compressed_pairIPNS_6vectorINS1_IiNS_9allocatorIiEEEENS2_IS4_EEEENS2_IS6_EEE5firstB8ue170006Ev, symObjAddr: 0x9A20, symBinAddr: 0x10C98, symSize: 0x24 }
  - { offsetInCU: 0x13B05, offset: 0x30665, size: 0x8, addend: 0x0, symName: __ZNSt3__122__compressed_pair_elemIPNS_6vectorINS1_IiNS_9allocatorIiEEEENS2_IS4_EEEELi0ELb0EE5__getB8ue170006Ev, symObjAddr: 0x9A44, symBinAddr: 0x10CBC, symSize: 0x14 }
  - { offsetInCU: 0x13B29, offset: 0x30689, size: 0x8, addend: 0x0, symName: __ZNKSt3__16vectorINS0_INS0_IiNS_9allocatorIiEEEENS1_IS3_EEEENS1_IS5_EEE31__annotate_contiguous_containerB8ue170006EPKvS9_S9_S9_, symObjAddr: 0x9A58, symBinAddr: 0x10CD0, symSize: 0x20 }
  - { offsetInCU: 0x13B7D, offset: 0x306DD, size: 0x8, addend: 0x0, symName: __ZNKSt3__16vectorINS0_INS0_IiNS_9allocatorIiEEEENS1_IS3_EEEENS1_IS5_EEE4dataB8ue170006Ev, symObjAddr: 0x9A78, symBinAddr: 0x10CF0, symSize: 0x28 }
  - { offsetInCU: 0x13BA1, offset: 0x30701, size: 0x8, addend: 0x0, symName: __ZNKSt3__16vectorINS0_INS0_IiNS_9allocatorIiEEEENS1_IS3_EEEENS1_IS5_EEE8capacityB8ue170006Ev, symObjAddr: 0x9AA0, symBinAddr: 0x10D18, symSize: 0x40 }
  - { offsetInCU: 0x13BC5, offset: 0x30725, size: 0x8, addend: 0x0, symName: __ZNKSt3__16vectorINS0_INS0_IiNS_9allocatorIiEEEENS1_IS3_EEEENS1_IS5_EEE9__end_capB8ue170006Ev, symObjAddr: 0x9AF4, symBinAddr: 0x10D6C, symSize: 0x28 }
  - { offsetInCU: 0x13BE9, offset: 0x30749, size: 0x8, addend: 0x0, symName: __ZNKSt3__117__compressed_pairIPNS_6vectorINS1_IiNS_9allocatorIiEEEENS2_IS4_EEEENS2_IS6_EEE5firstB8ue170006Ev, symObjAddr: 0x9B1C, symBinAddr: 0x10D94, symSize: 0x24 }
  - { offsetInCU: 0x13C0D, offset: 0x3076D, size: 0x8, addend: 0x0, symName: __ZNKSt3__122__compressed_pair_elemIPNS_6vectorINS1_IiNS_9allocatorIiEEEENS2_IS4_EEEELi0ELb0EE5__getB8ue170006Ev, symObjAddr: 0x9B40, symBinAddr: 0x10DB8, symSize: 0x14 }
  - { offsetInCU: 0x13C4A, offset: 0x307AA, size: 0x8, addend: 0x0, symName: __ZNSt3__16vectorINS0_INS0_IiNS_9allocatorIiEEEENS1_IS3_EEEENS1_IS5_EEE21_ConstructTransactionC1B8ue170006ERS7_m, symObjAddr: 0x9B54, symBinAddr: 0x10DCC, symSize: 0x3C }
  - { offsetInCU: 0x13C90, offset: 0x307F0, size: 0x8, addend: 0x0, symName: __ZNSt3__116allocator_traitsINS_9allocatorINS_6vectorINS2_IiNS1_IiEEEENS1_IS4_EEEEEEE9constructB8ue170006IS6_JRKS6_EvEEvRS7_PT_DpOT0_, symObjAddr: 0x9B90, symBinAddr: 0x10E08, symSize: 0x34 }
  - { offsetInCU: 0x13CE6, offset: 0x30846, size: 0x8, addend: 0x0, symName: __ZNSt3__16vectorINS0_INS0_IiNS_9allocatorIiEEEENS1_IS3_EEEENS1_IS5_EEE21_ConstructTransactionD1B8ue170006Ev, symObjAddr: 0x9BC4, symBinAddr: 0x10E3C, symSize: 0x2C }
  - { offsetInCU: 0x13D0E, offset: 0x3086E, size: 0x8, addend: 0x0, symName: __ZNSt3__16vectorINS0_INS0_IiNS_9allocatorIiEEEENS1_IS3_EEEENS1_IS5_EEE21_ConstructTransactionC2B8ue170006ERS7_m, symObjAddr: 0x9BF0, symBinAddr: 0x10E68, symSize: 0x4C }
  - { offsetInCU: 0x13D54, offset: 0x308B4, size: 0x8, addend: 0x0, symName: __ZNSt3__19allocatorINS_6vectorINS1_IiNS0_IiEEEENS0_IS3_EEEEE9constructB8ue170006IS5_JRKS5_EEEvPT_DpOT0_, symObjAddr: 0x9C3C, symBinAddr: 0x10EB4, symSize: 0x30 }
  - { offsetInCU: 0x13DA8, offset: 0x30908, size: 0x8, addend: 0x0, symName: __ZNSt3__16vectorINS0_IiNS_9allocatorIiEEEENS1_IS3_EEEC1ERKS5_, symObjAddr: 0x9C6C, symBinAddr: 0x10EE4, symSize: 0x34 }
  - { offsetInCU: 0x13DE2, offset: 0x30942, size: 0x8, addend: 0x0, symName: __ZNSt3__16vectorINS0_IiNS_9allocatorIiEEEENS1_IS3_EEEC2ERKS5_, symObjAddr: 0x9CA0, symBinAddr: 0x10F18, symSize: 0x94 }
  - { offsetInCU: 0x13E1C, offset: 0x3097C, size: 0x8, addend: 0x0, symName: __ZNSt3__116allocator_traitsINS_9allocatorINS_6vectorIiNS1_IiEEEEEEE37select_on_container_copy_constructionB8ue170006IS5_vvEES5_RKS5_, symObjAddr: 0x9D34, symBinAddr: 0x10FAC, symSize: 0x10 }
  - { offsetInCU: 0x13E4F, offset: 0x309AF, size: 0x8, addend: 0x0, symName: __ZNSt3__117__compressed_pairIPNS_6vectorIiNS_9allocatorIiEEEENS2_IS4_EEEC1B8ue170006IDnS6_EEOT_OT0_, symObjAddr: 0x9D44, symBinAddr: 0x10FBC, symSize: 0x3C }
  - { offsetInCU: 0x13EA5, offset: 0x30A05, size: 0x8, addend: 0x0, symName: __ZNSt3__16vectorINS0_IiNS_9allocatorIiEEEENS1_IS3_EEE16__init_with_sizeB8ue170006IPS3_S7_EEvT_T0_m, symObjAddr: 0x9D80, symBinAddr: 0x10FF8, symSize: 0xB8 }
  - { offsetInCU: 0x13F17, offset: 0x30A77, size: 0x8, addend: 0x0, symName: __ZNSt3__117__compressed_pairIPNS_6vectorIiNS_9allocatorIiEEEENS2_IS4_EEEC2B8ue170006IDnS6_EEOT_OT0_, symObjAddr: 0x9E38, symBinAddr: 0x110B0, symSize: 0x44 }
  - { offsetInCU: 0x13F6D, offset: 0x30ACD, size: 0x8, addend: 0x0, symName: __ZNSt3__122__compressed_pair_elemINS_9allocatorINS_6vectorIiNS1_IiEEEEEELi1ELb1EEC2B8ue170006IS5_vEEOT_, symObjAddr: 0x9E7C, symBinAddr: 0x110F4, symSize: 0x18 }
  - { offsetInCU: 0x13FAD, offset: 0x30B0D, size: 0x8, addend: 0x0, symName: __ZNSt3__16vectorINS0_IiNS_9allocatorIiEEEENS1_IS3_EEE18__construct_at_endIPS3_S7_EEvT_T0_m, symObjAddr: 0x9E94, symBinAddr: 0x1110C, symSize: 0x8C }
  - { offsetInCU: 0x14040, offset: 0x30BA0, size: 0x8, addend: 0x0, symName: __ZNSt3__14pairIPNS_6vectorIiNS_9allocatorIiEEEES5_EC1B8ue170006IS5_S5_LPv0EEEOT_OT0_, symObjAddr: 0xA18C, symBinAddr: 0x11404, symSize: 0x3C }
  - { offsetInCU: 0x1409C, offset: 0x30BFC, size: 0x8, addend: 0x0, symName: __ZNSt3__14pairIPNS_6vectorIiNS_9allocatorIiEEEES5_EC2B8ue170006IS5_S5_LPv0EEEOT_OT0_, symObjAddr: 0xA1C8, symBinAddr: 0x11440, symSize: 0x34 }
  - { offsetInCU: 0x140F8, offset: 0x30C58, size: 0x8, addend: 0x0, symName: __ZNSt3__129_AllocatorDestroyRangeReverseINS_9allocatorINS_6vectorIiNS1_IiEEEEEEPS4_EC1B8ue170006ERS5_RS6_S9_, symObjAddr: 0xA248, symBinAddr: 0x114C0, symSize: 0x44 }
  - { offsetInCU: 0x1414D, offset: 0x30CAD, size: 0x8, addend: 0x0, symName: __ZNSt3__116allocator_traitsINS_9allocatorINS_6vectorIiNS1_IiEEEEEEE9constructB8ue170006IS4_JRS4_EvEEvRS5_PT_DpOT0_, symObjAddr: 0xA28C, symBinAddr: 0x11504, symSize: 0x34 }
  - { offsetInCU: 0x141A3, offset: 0x30D03, size: 0x8, addend: 0x0, symName: __ZNSt3__128__exception_guard_exceptionsINS_29_AllocatorDestroyRangeReverseINS_9allocatorINS_6vectorIiNS2_IiEEEEEEPS5_EEE10__completeB8ue170006Ev, symObjAddr: 0xA2C0, symBinAddr: 0x11538, symSize: 0x1C }
  - { offsetInCU: 0x141C7, offset: 0x30D27, size: 0x8, addend: 0x0, symName: __ZNSt3__128__exception_guard_exceptionsINS_29_AllocatorDestroyRangeReverseINS_9allocatorINS_6vectorIiNS2_IiEEEEEEPS5_EEED1B8ue170006Ev, symObjAddr: 0xA2DC, symBinAddr: 0x11554, symSize: 0x2C }
  - { offsetInCU: 0x141EF, offset: 0x30D4F, size: 0x8, addend: 0x0, symName: __ZNSt3__128__exception_guard_exceptionsINS_29_AllocatorDestroyRangeReverseINS_9allocatorINS_6vectorIiNS2_IiEEEEEEPS5_EEEC1B8ue170006ES8_, symObjAddr: 0xA308, symBinAddr: 0x11580, symSize: 0x34 }
  - { offsetInCU: 0x14226, offset: 0x30D86, size: 0x8, addend: 0x0, symName: __ZNSt3__128__exception_guard_exceptionsINS_29_AllocatorDestroyRangeReverseINS_9allocatorINS_6vectorIiNS2_IiEEEEEEPS5_EEEC2B8ue170006ES8_, symObjAddr: 0xA33C, symBinAddr: 0x115B4, symSize: 0x30 }
  - { offsetInCU: 0x1425D, offset: 0x30DBD, size: 0x8, addend: 0x0, symName: __ZNSt3__129_AllocatorDestroyRangeReverseINS_9allocatorINS_6vectorIiNS1_IiEEEEEEPS4_EC2B8ue170006ERS5_RS6_S9_, symObjAddr: 0xA36C, symBinAddr: 0x115E4, symSize: 0x38 }
  - { offsetInCU: 0x142B2, offset: 0x30E12, size: 0x8, addend: 0x0, symName: __ZNSt3__19allocatorINS_6vectorIiNS0_IiEEEEE9constructB8ue170006IS3_JRS3_EEEvPT_DpOT0_, symObjAddr: 0xA3A4, symBinAddr: 0x1161C, symSize: 0x30 }
  - { offsetInCU: 0x14306, offset: 0x30E66, size: 0x8, addend: 0x0, symName: __ZNSt3__128__exception_guard_exceptionsINS_29_AllocatorDestroyRangeReverseINS_9allocatorINS_6vectorIiNS2_IiEEEEEEPS5_EEED2B8ue170006Ev, symObjAddr: 0xA3D4, symBinAddr: 0x1164C, symSize: 0x50 }
  - { offsetInCU: 0x1432E, offset: 0x30E8E, size: 0x8, addend: 0x0, symName: __ZNKSt3__129_AllocatorDestroyRangeReverseINS_9allocatorINS_6vectorIiNS1_IiEEEEEEPS4_EclB8ue170006Ev, symObjAddr: 0xA424, symBinAddr: 0x1169C, symSize: 0x68 }
  - { offsetInCU: 0x14352, offset: 0x30EB2, size: 0x8, addend: 0x0, symName: __ZNSt3__116reverse_iteratorIPNS_6vectorIiNS_9allocatorIiEEEEEC1B8ue170006ES5_, symObjAddr: 0xA4FC, symBinAddr: 0x11774, symSize: 0x34 }
  - { offsetInCU: 0x14388, offset: 0x30EE8, size: 0x8, addend: 0x0, symName: __ZNSt3__116reverse_iteratorIPNS_6vectorIiNS_9allocatorIiEEEEEppB8ue170006Ev, symObjAddr: 0xA59C, symBinAddr: 0x11814, symSize: 0x20 }
  - { offsetInCU: 0x143AC, offset: 0x30F0C, size: 0x8, addend: 0x0, symName: __ZNKSt3__116reverse_iteratorIPNS_6vectorIiNS_9allocatorIiEEEEE4baseB8ue170006Ev, symObjAddr: 0xA5BC, symBinAddr: 0x11834, symSize: 0x18 }
  - { offsetInCU: 0x143D5, offset: 0x30F35, size: 0x8, addend: 0x0, symName: __ZNSt3__119__to_address_helperINS_16reverse_iteratorIPNS_6vectorIiNS_9allocatorIiEEEEEEvE6__callB8ue170006ERKS7_, symObjAddr: 0xA5D4, symBinAddr: 0x1184C, symSize: 0x38 }
  - { offsetInCU: 0x143F7, offset: 0x30F57, size: 0x8, addend: 0x0, symName: __ZNKSt3__116reverse_iteratorIPNS_6vectorIiNS_9allocatorIiEEEEEptB8ue170006Ev, symObjAddr: 0xA60C, symBinAddr: 0x11884, symSize: 0x24 }
  - { offsetInCU: 0x1441B, offset: 0x30F7B, size: 0x8, addend: 0x0, symName: __ZNKSt3__116reverse_iteratorIPNS_6vectorIiNS_9allocatorIiEEEEEdeB8ue170006Ev, symObjAddr: 0xA630, symBinAddr: 0x118A8, symSize: 0x28 }
  - { offsetInCU: 0x1444E, offset: 0x30FAE, size: 0x8, addend: 0x0, symName: __ZNSt3__116reverse_iteratorIPNS_6vectorIiNS_9allocatorIiEEEEEC2B8ue170006ES5_, symObjAddr: 0xA658, symBinAddr: 0x118D0, symSize: 0x28 }
  - { offsetInCU: 0x14484, offset: 0x30FE4, size: 0x8, addend: 0x0, symName: __ZNSt3__118__unwrap_iter_implIPNS_6vectorIiNS_9allocatorIiEEEELb1EE8__unwrapB8ue170006ES5_, symObjAddr: 0xA680, symBinAddr: 0x118F8, symSize: 0x24 }
  - { offsetInCU: 0x144A6, offset: 0x31006, size: 0x8, addend: 0x0, symName: __ZNSt3__118__unwrap_iter_implIPNS_6vectorIiNS_9allocatorIiEEEELb1EE8__rewrapB8ue170006ES5_S5_, symObjAddr: 0xA6A4, symBinAddr: 0x1191C, symSize: 0x58 }
  - { offsetInCU: 0x144D6, offset: 0x31036, size: 0x8, addend: 0x0, symName: __ZNSt3__16vectorINS0_INS0_IiNS_9allocatorIiEEEENS1_IS3_EEEENS1_IS5_EEE21_ConstructTransactionD2B8ue170006Ev, symObjAddr: 0xA6FC, symBinAddr: 0x11974, symSize: 0x20 }
  - { offsetInCU: 0x144FE, offset: 0x3105E, size: 0x8, addend: 0x0, symName: __ZNSt3__128__exception_guard_exceptionsINS_6vectorINS1_INS1_IiNS_9allocatorIiEEEENS2_IS4_EEEENS2_IS6_EEE16__destroy_vectorEED2B8ue170006Ev, symObjAddr: 0xA71C, symBinAddr: 0x11994, symSize: 0x50 }
  - { offsetInCU: 0x14526, offset: 0x31086, size: 0x8, addend: 0x0, symName: __ZNSt3__16vectorINS0_INS0_IiNS_9allocatorIiEEEENS1_IS3_EEEENS1_IS5_EEE16__destroy_vectorclB8ue170006Ev, symObjAddr: 0xA76C, symBinAddr: 0x119E4, symSize: 0x90 }
  - { offsetInCU: 0x1454A, offset: 0x310AA, size: 0x8, addend: 0x0, symName: __ZNSt3__16vectorINS0_INS0_IiNS_9allocatorIiEEEENS1_IS3_EEEENS1_IS5_EEE7__clearB8ue170006Ev, symObjAddr: 0xA7FC, symBinAddr: 0x11A74, symSize: 0x28 }
  - { offsetInCU: 0x1456E, offset: 0x310CE, size: 0x8, addend: 0x0, symName: __ZNKSt3__16vectorINS0_INS0_IiNS_9allocatorIiEEEENS1_IS3_EEEENS1_IS5_EEE17__annotate_deleteB8ue170006Ev, symObjAddr: 0xA824, symBinAddr: 0x11A9C, symSize: 0xD4 }
  - { offsetInCU: 0x14592, offset: 0x310F2, size: 0x8, addend: 0x0, symName: __ZNSt3__116allocator_traitsINS_9allocatorINS_6vectorINS2_IiNS1_IiEEEENS1_IS4_EEEEEEE10deallocateB8ue170006ERS7_PS6_m, symObjAddr: 0xA8F8, symBinAddr: 0x11B70, symSize: 0x34 }
  - { offsetInCU: 0x145D3, offset: 0x31133, size: 0x8, addend: 0x0, symName: __ZNSt3__16vectorINS0_INS0_IiNS_9allocatorIiEEEENS1_IS3_EEEENS1_IS5_EEE22__base_destruct_at_endB8ue170006EPS5_, symObjAddr: 0xA92C, symBinAddr: 0x11BA4, symSize: 0x8C }
  - { offsetInCU: 0x14615, offset: 0x31175, size: 0x8, addend: 0x0, symName: __ZNSt3__116allocator_traitsINS_9allocatorINS_6vectorINS2_IiNS1_IiEEEENS1_IS4_EEEEEEE7destroyB8ue170006IS6_vEEvRS7_PT_, symObjAddr: 0xA9B8, symBinAddr: 0x11C30, symSize: 0x2C }
  - { offsetInCU: 0x14651, offset: 0x311B1, size: 0x8, addend: 0x0, symName: __ZNSt3__19allocatorINS_6vectorINS1_IiNS0_IiEEEENS0_IS3_EEEEE7destroyB8ue170006EPS5_, symObjAddr: 0xA9E4, symBinAddr: 0x11C5C, symSize: 0x28 }
  - { offsetInCU: 0x14683, offset: 0x311E3, size: 0x8, addend: 0x0, symName: __ZNKSt3__16vectorINS0_INS0_IiNS_9allocatorIiEEEENS1_IS3_EEEENS1_IS5_EEE4sizeB8ue170006Ev, symObjAddr: 0xAA0C, symBinAddr: 0x11C84, symSize: 0x28 }
  - { offsetInCU: 0x146A7, offset: 0x31207, size: 0x8, addend: 0x0, symName: __ZNSt3__19allocatorINS_6vectorINS1_IiNS0_IiEEEENS0_IS3_EEEEE10deallocateB8ue170006EPS5_m, symObjAddr: 0xAA34, symBinAddr: 0x11CAC, symSize: 0x44 }
  - { offsetInCU: 0x146E7, offset: 0x31247, size: 0x8, addend: 0x0, symName: __ZNSt3__16vectorINS0_INS0_IiNS_9allocatorIiEEEENS1_IS3_EEEENS1_IS5_EEED2B8ue170006Ev, symObjAddr: 0xAA78, symBinAddr: 0x11CF0, symSize: 0x40 }
  - { offsetInCU: 0xCF0F, offset: 0x3E2F4, size: 0x8, addend: 0x0, symName: __ZNSt3__111make_uniqueB8ue170006I14StaticWallCellJRiS2_EEENS_11__unique_ifIT_E15__unique_singleEDpOT0_, symObjAddr: 0x6D0, symBinAddr: 0x12400, symSize: 0x7C }
  - { offsetInCU: 0xCF65, offset: 0x3E34A, size: 0x8, addend: 0x0, symName: __ZNSt3__111make_uniqueB8ue170006I14MovingWallCellJRiS2_iiEEENS_11__unique_ifIT_E15__unique_singleEDpOT0_, symObjAddr: 0x7D8, symBinAddr: 0x1247C, symSize: 0x9C }
  - { offsetInCU: 0xCFE3, offset: 0x3E3C8, size: 0x8, addend: 0x0, symName: __ZNSt3__111make_uniqueB8ue170006I9WaterCellJRiS2_iiiEEENS_11__unique_ifIT_E15__unique_singleEDpOT0_, symObjAddr: 0x8D4, symBinAddr: 0x12518, symSize: 0xAC }
  - { offsetInCU: 0xFBB5, offset: 0x40F9A, size: 0x8, addend: 0x0, symName: _initialize_field, symObjAddr: 0x0, symBinAddr: 0x11D30, symSize: 0x4BC }
  - { offsetInCU: 0xFDB0, offset: 0x41195, size: 0x8, addend: 0x0, symName: __ZNSt3__114basic_ifstreamIcNS_11char_traitsIcEEEC1EPKcj, symObjAddr: 0x4BC, symBinAddr: 0x121EC, symSize: 0x16C }
  - { offsetInCU: 0xFDF9, offset: 0x411DE, size: 0x8, addend: 0x0, symName: __ZNKSt3__114basic_ifstreamIcNS_11char_traitsIcEEE7is_openEv, symObjAddr: 0x628, symBinAddr: 0x12358, symSize: 0x2C }
  - { offsetInCU: 0xFFD5, offset: 0x413BA, size: 0x8, addend: 0x0, symName: __ZN5FieldD1Ev, symObjAddr: 0x654, symBinAddr: 0x12384, symSize: 0x2C }
  - { offsetInCU: 0xFFFF, offset: 0x413E4, size: 0x8, addend: 0x0, symName: __ZNKSt3__19basic_iosIcNS_11char_traitsIcEEE3eofB8ue170006Ev, symObjAddr: 0x680, symBinAddr: 0x123B0, symSize: 0x28 }
  - { offsetInCU: 0x10023, offset: 0x41408, size: 0x8, addend: 0x0, symName: __ZNKSt3__19basic_iosIcNS_11char_traitsIcEEEntB8ue170006Ev, symObjAddr: 0x6A8, symBinAddr: 0x123D8, symSize: 0x28 }
  - { offsetInCU: 0x1004C, offset: 0x41431, size: 0x8, addend: 0x0, symName: __ZNSt3__114basic_ifstreamIcNS_11char_traitsIcEEED1Ev, symObjAddr: 0x9E0, symBinAddr: 0x125C4, symSize: 0x40 }
  - { offsetInCU: 0x10078, offset: 0x4145D, size: 0x8, addend: 0x0, symName: __ZN5FieldD2Ev, symObjAddr: 0xA20, symBinAddr: 0x12604, symSize: 0x30 }
  - { offsetInCU: 0x100A2, offset: 0x41487, size: 0x8, addend: 0x0, symName: __ZNSt3__114basic_ifstreamIcNS_11char_traitsIcEEED2Ev, symObjAddr: 0x15BC, symBinAddr: 0x12634, symSize: 0x64 }
  - { offsetInCU: 0x100DA, offset: 0x414BF, size: 0x8, addend: 0x0, symName: __ZTv0_n24_NSt3__114basic_ifstreamIcNS_11char_traitsIcEEED1Ev, symObjAddr: 0x1620, symBinAddr: 0x12698, symSize: 0x28 }
  - { offsetInCU: 0x100F1, offset: 0x414D6, size: 0x8, addend: 0x0, symName: __ZNSt3__19basic_iosIcNS_11char_traitsIcEEEC2B8ue170006Ev, symObjAddr: 0x1648, symBinAddr: 0x126C0, symSize: 0x44 }
  - { offsetInCU: 0x10119, offset: 0x414FE, size: 0x8, addend: 0x0, symName: __ZNSt3__113basic_istreamIcNS_11char_traitsIcEEEC2B8ue170006EPNS_15basic_streambufIcS2_EE, symObjAddr: 0x168C, symBinAddr: 0x12704, symSize: 0x64 }
  - { offsetInCU: 0x1015B, offset: 0x41540, size: 0x8, addend: 0x0, symName: __ZNSt3__18ios_baseC2B8ue170006Ev, symObjAddr: 0x171C, symBinAddr: 0x12768, symSize: 0x24 }
  - { offsetInCU: 0x10183, offset: 0x41568, size: 0x8, addend: 0x0, symName: __ZNSt3__19basic_iosIcNS_11char_traitsIcEEE4initB8ue170006EPNS_15basic_streambufIcS2_EE, symObjAddr: 0x1740, symBinAddr: 0x1278C, symSize: 0x44 }
  - { offsetInCU: 0x101B9, offset: 0x4159E, size: 0x8, addend: 0x0, symName: __ZNKSt3__113basic_filebufIcNS_11char_traitsIcEEE7is_openEv, symObjAddr: 0x17C0, symBinAddr: 0x127D0, symSize: 0x24 }
  - { offsetInCU: 0x101E0, offset: 0x415C5, size: 0x8, addend: 0x0, symName: __ZNKSt3__18ios_base3eofB8ue170006Ev, symObjAddr: 0x17E4, symBinAddr: 0x127F4, symSize: 0x24 }
  - { offsetInCU: 0x10207, offset: 0x415EC, size: 0x8, addend: 0x0, symName: __ZNKSt3__19basic_iosIcNS_11char_traitsIcEEE4failB8ue170006Ev, symObjAddr: 0x1808, symBinAddr: 0x12818, symSize: 0x28 }
  - { offsetInCU: 0x1022B, offset: 0x41610, size: 0x8, addend: 0x0, symName: __ZNKSt3__18ios_base4failB8ue170006Ev, symObjAddr: 0x1830, symBinAddr: 0x12840, symSize: 0x28 }
...
