---
triple:          'arm64-apple-darwin'
binary-path:     test
relocations:
  - { offsetInCU: 0x3B, offset: 0x3B, size: 0x8, addend: 0x0, symName: _.str, symObjAddr: 0x1E00, symBinAddr: 0x100030FA0, symSize: 0x0 }
  - { offsetInCU: 0x6B, offset: 0x6B, size: 0x8, addend: 0x0, symName: _.str.1, symObjAddr: 0x1E40, symBinAddr: 0x100030FE0, symSize: 0x0 }
  - { offsetInCU: 0x88, offset: 0x88, size: 0x8, addend: 0x0, symName: _.str.2, symObjAddr: 0x1E60, symBinAddr: 0x100031000, symSize: 0x0 }
  - { offsetInCU: 0xA5, offset: 0xA5, size: 0x8, addend: 0x0, symName: _.str.3, symObjAddr: 0x1EA0, symBinAddr: 0x100031040, symSize: 0x0 }
  - { offsetInCU: 0xC2, offset: 0xC2, size: 0x8, addend: 0x0, symName: _.str.4, symObjAddr: 0x1EC0, symBinAddr: 0x100031060, symSize: 0x0 }
  - { offsetInCU: 0xDF, offset: 0xDF, size: 0x8, addend: 0x0, symName: _.str.5, symObjAddr: 0x1EE0, symBinAddr: 0x100031080, symSize: 0x0 }
  - { offsetInCU: 0xFC, offset: 0xFC, size: 0x8, addend: 0x0, symName: _.str.6, symObjAddr: 0x1F00, symBinAddr: 0x1000310A0, symSize: 0x0 }
  - { offsetInCU: 0x10D, offset: 0x10D, size: 0x8, addend: 0x0, symName: _.str.7, symObjAddr: 0x1F20, symBinAddr: 0x1000310C0, symSize: 0x0 }
  - { offsetInCU: 0x3384, offset: 0x3384, size: 0x8, addend: 0x0, symName: __ZNSt3__1plB8ue170006IcNS_11char_traitsIcEENS_9allocatorIcEEEENS_12basic_stringIT_T0_T1_EEOS9_RKS9_, symObjAddr: 0xE40, symBinAddr: 0x100005100, symSize: 0x40 }
  - { offsetInCU: 0x33DC, offset: 0x33DC, size: 0x8, addend: 0x0, symName: __ZNSt3__1plB8ue170006IcNS_11char_traitsIcEENS_9allocatorIcEEEENS_12basic_stringIT_T0_T1_EEOS9_PKS6_, symObjAddr: 0xE80, symBinAddr: 0x100005140, symSize: 0x40 }
  - { offsetInCU: 0x3434, offset: 0x3434, size: 0x8, addend: 0x0, symName: __ZNSt3__1plB8ue170006IcNS_11char_traitsIcEENS_9allocatorIcEEEENS_12basic_stringIT_T0_T1_EEOS9_SA_, symObjAddr: 0xEC0, symBinAddr: 0x100005180, symSize: 0x40 }
  - { offsetInCU: 0x348C, offset: 0x348C, size: 0x8, addend: 0x0, symName: __ZNSt3__1plB8ue170006IcNS_11char_traitsIcEENS_9allocatorIcEEEENS_12basic_stringIT_T0_T1_EEPKS6_OS9_, symObjAddr: 0xF00, symBinAddr: 0x1000051C0, symSize: 0x44 }
  - { offsetInCU: 0x34E4, offset: 0x34E4, size: 0x8, addend: 0x0, symName: __ZNSt3__118__constexpr_strlenB8ue170006EPKc, symObjAddr: 0x17C4, symBinAddr: 0x100005A84, symSize: 0x24 }
  - { offsetInCU: 0x3510, offset: 0x3510, size: 0x8, addend: 0x0, symName: __ZNSt3__112__to_addressB8ue170006IKcEEPT_S3_, symObjAddr: 0x1924, symBinAddr: 0x100005BE4, symSize: 0x14 }
  - { offsetInCU: 0x5A6A, offset: 0x5A6A, size: 0x8, addend: 0x0, symName: __ZN4CellC2Eii, symObjAddr: 0x0, symBinAddr: 0x1000042C0, symSize: 0x228 }
  - { offsetInCU: 0x5AB0, offset: 0x5AB0, size: 0x8, addend: 0x0, symName: __ZNSt3__112basic_stringIcNS_11char_traitsIcEENS_9allocatorIcEEEC1B8ue170006Ev, symObjAddr: 0x228, symBinAddr: 0x1000044E8, symSize: 0x2C }
  - { offsetInCU: 0x5AD8, offset: 0x5AD8, size: 0x8, addend: 0x0, symName: __ZNSt16invalid_argumentC1B8ue170006EPKc, symObjAddr: 0x254, symBinAddr: 0x100004514, symSize: 0x34 }
  - { offsetInCU: 0x5B0E, offset: 0x5B0E, size: 0x8, addend: 0x0, symName: __ZNSt3__112basic_stringIcNS_11char_traitsIcEENS_9allocatorIcEEEaSB8ue170006EPKc, symObjAddr: 0x288, symBinAddr: 0x100004548, symSize: 0x2C }
  - { offsetInCU: 0x5B41, offset: 0x5B41, size: 0x8, addend: 0x0, symName: __ZN4CellC1Eii, symObjAddr: 0x2B4, symBinAddr: 0x100004574, symSize: 0x3C }
  - { offsetInCU: 0x5B87, offset: 0x5B87, size: 0x8, addend: 0x0, symName: __ZN4CellD2Ev, symObjAddr: 0x2F0, symBinAddr: 0x1000045B0, symSize: 0x80 }
  - { offsetInCU: 0x5BB1, offset: 0x5BB1, size: 0x8, addend: 0x0, symName: __ZN4CellD1Ev, symObjAddr: 0x370, symBinAddr: 0x100004630, symSize: 0x2C }
  - { offsetInCU: 0x5BDB, offset: 0x5BDB, size: 0x8, addend: 0x0, symName: __ZN4CellD0Ev, symObjAddr: 0x39C, symBinAddr: 0x10000465C, symSize: 0x30 }
  - { offsetInCU: 0x5C05, offset: 0x5C05, size: 0x8, addend: 0x0, symName: __ZNK4CellixEc, symObjAddr: 0x3CC, symBinAddr: 0x10000468C, symSize: 0x1A4 }
  - { offsetInCU: 0x5C39, offset: 0x5C39, size: 0x8, addend: 0x0, symName: __ZNK4Cell5get_xEv, symObjAddr: 0x570, symBinAddr: 0x100004830, symSize: 0x8C }
  - { offsetInCU: 0x5C5F, offset: 0x5C5F, size: 0x8, addend: 0x0, symName: __ZNK4Cell5get_yEv, symObjAddr: 0x5FC, symBinAddr: 0x1000048BC, symSize: 0x8C }
  - { offsetInCU: 0x5C85, offset: 0x5C85, size: 0x8, addend: 0x0, symName: __ZNK4Cell8get_typeEv, symObjAddr: 0x688, symBinAddr: 0x100004948, symSize: 0x3C }
  - { offsetInCU: 0x5CAB, offset: 0x5CAB, size: 0x8, addend: 0x0, symName: __ZNK4Cell15get_descriptionEv, symObjAddr: 0x6C4, symBinAddr: 0x100004984, symSize: 0x3C }
  - { offsetInCU: 0x5CD6, offset: 0x5CD6, size: 0x8, addend: 0x0, symName: __ZNSt3__112basic_stringIcNS_11char_traitsIcEENS_9allocatorIcEEEC1B8ue170006ILi0EEEPKc, symObjAddr: 0x700, symBinAddr: 0x1000049C0, symSize: 0x34 }
  - { offsetInCU: 0x5D13, offset: 0x5D13, size: 0x8, addend: 0x0, symName: __ZNK4Cell20get_description_testEv, symObjAddr: 0x734, symBinAddr: 0x1000049F4, symSize: 0x70C }
  - { offsetInCU: 0x5D3A, offset: 0x5D3A, size: 0x8, addend: 0x0, symName: __ZN4Cell8set_typeENSt3__112basic_stringIcNS0_11char_traitsIcEENS0_9allocatorIcEEEE, symObjAddr: 0xF44, symBinAddr: 0x100005204, symSize: 0x30 }
  - { offsetInCU: 0x5D6F, offset: 0x5D6F, size: 0x8, addend: 0x0, symName: __ZNSt16invalid_argumentC2B8ue170006EPKc, symObjAddr: 0xF74, symBinAddr: 0x100005234, symSize: 0x8C }
  - { offsetInCU: 0x5DA5, offset: 0x5DA5, size: 0x8, addend: 0x0, symName: __ZNSt3__112basic_stringIcNS_11char_traitsIcEENS_9allocatorIcEEEC2B8ue170006Ev, symObjAddr: 0x1000, symBinAddr: 0x1000052C0, symSize: 0x20C }
  - { offsetInCU: 0x5DD3, offset: 0x5DD3, size: 0x8, addend: 0x0, symName: __ZNSt3__117__compressed_pairINS_12basic_stringIcNS_11char_traitsIcEENS_9allocatorIcEEE5__repES5_EC1B8ue170006INS_18__default_init_tagESA_EEOT_OT0_, symObjAddr: 0x120C, symBinAddr: 0x1000054CC, symSize: 0x3C }
  - { offsetInCU: 0x5E29, offset: 0x5E29, size: 0x8, addend: 0x0, symName: __ZNSt3__112basic_stringIcNS_11char_traitsIcEENS_9allocatorIcEEE14__default_initB8ue170006Ev, symObjAddr: 0x1254, symBinAddr: 0x100005514, symSize: 0x22C }
  - { offsetInCU: 0x5E4E, offset: 0x5E4E, size: 0x8, addend: 0x0, symName: __ZNSt3__117__compressed_pairINS_12basic_stringIcNS_11char_traitsIcEENS_9allocatorIcEEE5__repES5_EC2B8ue170006INS_18__default_init_tagESA_EEOT_OT0_, symObjAddr: 0x1480, symBinAddr: 0x100005740, symSize: 0x3C }
  - { offsetInCU: 0x5EA4, offset: 0x5EA4, size: 0x8, addend: 0x0, symName: __ZNSt3__122__compressed_pair_elemINS_12basic_stringIcNS_11char_traitsIcEENS_9allocatorIcEEE5__repELi0ELb0EEC2B8ue170006ENS_18__default_init_tagE, symObjAddr: 0x14BC, symBinAddr: 0x10000577C, symSize: 0x14 }
  - { offsetInCU: 0x5ED6, offset: 0x5ED6, size: 0x8, addend: 0x0, symName: __ZNSt3__122__compressed_pair_elemINS_9allocatorIcEELi1ELb1EEC2B8ue170006ENS_18__default_init_tagE, symObjAddr: 0x14D0, symBinAddr: 0x100005790, symSize: 0x2C }
  - { offsetInCU: 0x5F08, offset: 0x5F08, size: 0x8, addend: 0x0, symName: __ZNSt3__19allocatorIcEC2B8ue170006Ev, symObjAddr: 0x14FC, symBinAddr: 0x1000057BC, symSize: 0x2C }
  - { offsetInCU: 0x5F30, offset: 0x5F30, size: 0x8, addend: 0x0, symName: __ZNSt3__116__non_trivial_ifILb1ENS_9allocatorIcEEEC2B8ue170006Ev, symObjAddr: 0x1528, symBinAddr: 0x1000057E8, symSize: 0x14 }
  - { offsetInCU: 0x5F58, offset: 0x5F58, size: 0x8, addend: 0x0, symName: __ZNSt3__117__compressed_pairINS_12basic_stringIcNS_11char_traitsIcEENS_9allocatorIcEEE5__repES5_E5firstB8ue170006Ev, symObjAddr: 0x153C, symBinAddr: 0x1000057FC, symSize: 0x24 }
  - { offsetInCU: 0x5F7C, offset: 0x5F7C, size: 0x8, addend: 0x0, symName: __ZNSt3__122__compressed_pair_elemINS_12basic_stringIcNS_11char_traitsIcEENS_9allocatorIcEEE5__repELi0ELb0EE5__getB8ue170006Ev, symObjAddr: 0x1560, symBinAddr: 0x100005820, symSize: 0x14 }
  - { offsetInCU: 0x5FA0, offset: 0x5FA0, size: 0x8, addend: 0x0, symName: __ZNSt3__112basic_stringIcNS_11char_traitsIcEENS_9allocatorIcEEEC2B8ue170006ILi0EEEPKc, symObjAddr: 0x1574, symBinAddr: 0x100005834, symSize: 0x210 }
  - { offsetInCU: 0x5FDF, offset: 0x5FDF, size: 0x8, addend: 0x0, symName: __ZNSt3__111char_traitsIcE6lengthB8ue170006EPKc, symObjAddr: 0x1784, symBinAddr: 0x100005A44, symSize: 0x40 }
  - { offsetInCU: 0x6001, offset: 0x6001, size: 0x8, addend: 0x0, symName: __ZNSt3__112basic_stringIcNS_11char_traitsIcEENS_9allocatorIcEEEC1B8ue170006EOS5_, symObjAddr: 0x17E8, symBinAddr: 0x100005AA8, symSize: 0x34 }
  - { offsetInCU: 0x6038, offset: 0x6038, size: 0x8, addend: 0x0, symName: __ZNSt3__112basic_stringIcNS_11char_traitsIcEENS_9allocatorIcEEEC2B8ue170006EOS5_, symObjAddr: 0x181C, symBinAddr: 0x100005ADC, symSize: 0x40 }
  - { offsetInCU: 0x606F, offset: 0x606F, size: 0x8, addend: 0x0, symName: __ZNSt3__112basic_stringIcNS_11char_traitsIcEENS_9allocatorIcEEE6appendB8ue170006ERKS5_, symObjAddr: 0x185C, symBinAddr: 0x100005B1C, symSize: 0x4C }
  - { offsetInCU: 0x60A2, offset: 0x60A2, size: 0x8, addend: 0x0, symName: __ZNKSt3__112basic_stringIcNS_11char_traitsIcEENS_9allocatorIcEEE4dataB8ue170006Ev, symObjAddr: 0x18A8, symBinAddr: 0x100005B68, symSize: 0x28 }
  - { offsetInCU: 0x60C6, offset: 0x60C6, size: 0x8, addend: 0x0, symName: __ZNKSt3__112basic_stringIcNS_11char_traitsIcEENS_9allocatorIcEEE4sizeB8ue170006Ev, symObjAddr: 0x18D0, symBinAddr: 0x100005B90, symSize: 0x54 }
  - { offsetInCU: 0x60EA, offset: 0x60EA, size: 0x8, addend: 0x0, symName: __ZNKSt3__112basic_stringIcNS_11char_traitsIcEENS_9allocatorIcEEE13__get_pointerB8ue170006Ev, symObjAddr: 0x1938, symBinAddr: 0x100005BF8, symSize: 0x54 }
  - { offsetInCU: 0x610E, offset: 0x610E, size: 0x8, addend: 0x0, symName: __ZNKSt3__112basic_stringIcNS_11char_traitsIcEENS_9allocatorIcEEE9__is_longB8ue170006Ev, symObjAddr: 0x198C, symBinAddr: 0x100005C4C, symSize: 0xA4 }
  - { offsetInCU: 0x6132, offset: 0x6132, size: 0x8, addend: 0x0, symName: __ZNKSt3__112basic_stringIcNS_11char_traitsIcEENS_9allocatorIcEEE18__get_long_pointerB8ue170006Ev, symObjAddr: 0x1A30, symBinAddr: 0x100005CF0, symSize: 0x6C }
  - { offsetInCU: 0x6156, offset: 0x6156, size: 0x8, addend: 0x0, symName: __ZNKSt3__112basic_stringIcNS_11char_traitsIcEENS_9allocatorIcEEE19__get_short_pointerB8ue170006Ev, symObjAddr: 0x1A9C, symBinAddr: 0x100005D5C, symSize: 0x28 }
  - { offsetInCU: 0x617A, offset: 0x617A, size: 0x8, addend: 0x0, symName: __ZNKSt3__117__compressed_pairINS_12basic_stringIcNS_11char_traitsIcEENS_9allocatorIcEEE5__repES5_E5firstB8ue170006Ev, symObjAddr: 0x1AC4, symBinAddr: 0x100005D84, symSize: 0x24 }
  - { offsetInCU: 0x619E, offset: 0x619E, size: 0x8, addend: 0x0, symName: __ZNKSt3__122__compressed_pair_elemINS_12basic_stringIcNS_11char_traitsIcEENS_9allocatorIcEEE5__repELi0ELb0EE5__getB8ue170006Ev, symObjAddr: 0x1AE8, symBinAddr: 0x100005DA8, symSize: 0x14 }
  - { offsetInCU: 0x61C2, offset: 0x61C2, size: 0x8, addend: 0x0, symName: __ZNSt3__114pointer_traitsIPKcE10pointer_toB8ue170006ERS1_, symObjAddr: 0x1AFC, symBinAddr: 0x100005DBC, symSize: 0x14 }
  - { offsetInCU: 0x61E4, offset: 0x61E4, size: 0x8, addend: 0x0, symName: __ZNKSt3__112basic_stringIcNS_11char_traitsIcEENS_9allocatorIcEEE15__get_long_sizeB8ue170006Ev, symObjAddr: 0x1B10, symBinAddr: 0x100005DD0, symSize: 0x70 }
  - { offsetInCU: 0x6208, offset: 0x6208, size: 0x8, addend: 0x0, symName: __ZNKSt3__112basic_stringIcNS_11char_traitsIcEENS_9allocatorIcEEE16__get_short_sizeB8ue170006Ev, symObjAddr: 0x1B80, symBinAddr: 0x100005E40, symSize: 0xA0 }
  - { offsetInCU: 0x3B, offset: 0x6299, size: 0x8, addend: 0x0, symName: _.str, symObjAddr: 0x1EA0, symBinAddr: 0x100031100, symSize: 0x0 }
  - { offsetInCU: 0x6B, offset: 0x62C9, size: 0x8, addend: 0x0, symName: _.str.1, symObjAddr: 0x1EE0, symBinAddr: 0x100031140, symSize: 0x0 }
  - { offsetInCU: 0x88, offset: 0x62E6, size: 0x8, addend: 0x0, symName: _.str.2, symObjAddr: 0x1F00, symBinAddr: 0x100031160, symSize: 0x0 }
  - { offsetInCU: 0xA5, offset: 0x6303, size: 0x8, addend: 0x0, symName: _.str.3, symObjAddr: 0x1F40, symBinAddr: 0x1000311A0, symSize: 0x0 }
  - { offsetInCU: 0xC2, offset: 0x6320, size: 0x8, addend: 0x0, symName: _.str.4, symObjAddr: 0x1F60, symBinAddr: 0x1000311C0, symSize: 0x0 }
  - { offsetInCU: 0xD3, offset: 0x6331, size: 0x8, addend: 0x0, symName: _.str.5, symObjAddr: 0x1F80, symBinAddr: 0x1000311E0, symSize: 0x0 }
  - { offsetInCU: 0xE4, offset: 0x6342, size: 0x8, addend: 0x0, symName: _.str.6, symObjAddr: 0x1FA0, symBinAddr: 0x100031200, symSize: 0x0 }
  - { offsetInCU: 0xF5, offset: 0x6353, size: 0x8, addend: 0x0, symName: _.str.7, symObjAddr: 0x1FC0, symBinAddr: 0x100031220, symSize: 0x0 }
  - { offsetInCU: 0x106, offset: 0x6364, size: 0x8, addend: 0x0, symName: _.str.8, symObjAddr: 0x1FE0, symBinAddr: 0x100031240, symSize: 0x0 }
  - { offsetInCU: 0x4A4B, offset: 0xACA9, size: 0x8, addend: 0x0, symName: __ZN9WaterCellC2Eiifff, symObjAddr: 0x0, symBinAddr: 0x100005F78, symSize: 0x4F8 }
  - { offsetInCU: 0x4AC6, offset: 0xAD24, size: 0x8, addend: 0x0, symName: __ZN9WaterCellC1Eiifff, symObjAddr: 0x58C, symBinAddr: 0x100006470, symSize: 0x54 }
  - { offsetInCU: 0x4B36, offset: 0xAD94, size: 0x8, addend: 0x0, symName: __ZN9WaterCellixEc, symObjAddr: 0x5E0, symBinAddr: 0x1000064C4, symSize: 0xF8 }
  - { offsetInCU: 0x4B6A, offset: 0xADC8, size: 0x8, addend: 0x0, symName: __ZNK9WaterCellixEc, symObjAddr: 0x6D8, symBinAddr: 0x1000065BC, symSize: 0x238 }
  - { offsetInCU: 0x4B9E, offset: 0xADFC, size: 0x8, addend: 0x0, symName: __ZN9WaterCell5get_uEv, symObjAddr: 0x938, symBinAddr: 0x10000681C, symSize: 0x8C }
  - { offsetInCU: 0x4BC4, offset: 0xAE22, size: 0x8, addend: 0x0, symName: __ZN9WaterCell5get_vEv, symObjAddr: 0x9C4, symBinAddr: 0x1000068A8, symSize: 0x8C }
  - { offsetInCU: 0x4BEA, offset: 0xAE48, size: 0x8, addend: 0x0, symName: __ZN9WaterCell5get_pEv, symObjAddr: 0xA50, symBinAddr: 0x100006934, symSize: 0x8C }
  - { offsetInCU: 0x4C10, offset: 0xAE6E, size: 0x8, addend: 0x0, symName: __ZN9WaterCell5set_uEf, symObjAddr: 0xADC, symBinAddr: 0x1000069C0, symSize: 0x9C }
  - { offsetInCU: 0x4C44, offset: 0xAEA2, size: 0x8, addend: 0x0, symName: __ZN9WaterCell5set_vEf, symObjAddr: 0xB78, symBinAddr: 0x100006A5C, symSize: 0x9C }
  - { offsetInCU: 0x4C78, offset: 0xAED6, size: 0x8, addend: 0x0, symName: __ZN9WaterCell5set_pEf, symObjAddr: 0xC14, symBinAddr: 0x100006AF8, symSize: 0x118 }
  - { offsetInCU: 0x4CAC, offset: 0xAF0A, size: 0x8, addend: 0x0, symName: __ZNK9WaterCell15get_descriptionEv, symObjAddr: 0xD2C, symBinAddr: 0x100006C10, symSize: 0x628 }
  - { offsetInCU: 0x4CD2, offset: 0xAF30, size: 0x8, addend: 0x0, symName: __ZN9WaterCellD1Ev, symObjAddr: 0x1354, symBinAddr: 0x100007238, symSize: 0x2C }
  - { offsetInCU: 0x4CFC, offset: 0xAF5A, size: 0x8, addend: 0x0, symName: __ZN9WaterCellD0Ev, symObjAddr: 0x1380, symBinAddr: 0x100007264, symSize: 0x30 }
  - { offsetInCU: 0x4D26, offset: 0xAF84, size: 0x8, addend: 0x0, symName: __ZN9WaterCellD2Ev, symObjAddr: 0x143C, symBinAddr: 0x100007294, symSize: 0x88 }
  - { offsetInCU: 0x3B, offset: 0xAFF3, size: 0x8, addend: 0x0, symName: _.str, symObjAddr: 0xAA0, symBinAddr: 0x100031280, symSize: 0x0 }
  - { offsetInCU: 0x6B, offset: 0xB023, size: 0x8, addend: 0x0, symName: _.str.1, symObjAddr: 0xAC0, symBinAddr: 0x1000312A0, symSize: 0x0 }
  - { offsetInCU: 0x48A5, offset: 0xF85D, size: 0x8, addend: 0x0, symName: __ZN8WallCellC2Eii, symObjAddr: 0x0, symBinAddr: 0x1000073B4, symSize: 0xE8 }
  - { offsetInCU: 0x48EB, offset: 0xF8A3, size: 0x8, addend: 0x0, symName: __ZN8WallCellC1Eii, symObjAddr: 0x140, symBinAddr: 0x10000749C, symSize: 0x3C }
  - { offsetInCU: 0x4931, offset: 0xF8E9, size: 0x8, addend: 0x0, symName: __ZNK8WallCellixEc, symObjAddr: 0x17C, symBinAddr: 0x1000074D8, symSize: 0xDC }
  - { offsetInCU: 0x4965, offset: 0xF91D, size: 0x8, addend: 0x0, symName: __ZN8WallCellD1Ev, symObjAddr: 0x28C, symBinAddr: 0x1000075B4, symSize: 0x2C }
  - { offsetInCU: 0x498F, offset: 0xF947, size: 0x8, addend: 0x0, symName: __ZN8WallCellD0Ev, symObjAddr: 0x2B8, symBinAddr: 0x1000075E0, symSize: 0x30 }
  - { offsetInCU: 0x49B9, offset: 0xF971, size: 0x8, addend: 0x0, symName: __ZN8WallCellD2Ev, symObjAddr: 0x8E8, symBinAddr: 0x100007610, symSize: 0x88 }
  - { offsetInCU: 0x3B, offset: 0xF9E0, size: 0x8, addend: 0x0, symName: _.str, symObjAddr: 0xEE0, symBinAddr: 0x1000312E0, symSize: 0x0 }
  - { offsetInCU: 0x48F9, offset: 0x1429E, size: 0x8, addend: 0x0, symName: __ZN14StaticWallCellC2Eii, symObjAddr: 0x0, symBinAddr: 0x100007730, symSize: 0x330 }
  - { offsetInCU: 0x4947, offset: 0x142EC, size: 0x8, addend: 0x0, symName: __ZN14StaticWallCellC1Eii, symObjAddr: 0x418, symBinAddr: 0x100007A60, symSize: 0x3C }
  - { offsetInCU: 0x498D, offset: 0x14332, size: 0x8, addend: 0x0, symName: __ZN14StaticWallCellD1Ev, symObjAddr: 0x454, symBinAddr: 0x100007A9C, symSize: 0x2C }
  - { offsetInCU: 0x49B7, offset: 0x1435C, size: 0x8, addend: 0x0, symName: __ZN14StaticWallCellD0Ev, symObjAddr: 0x480, symBinAddr: 0x100007AC8, symSize: 0x30 }
  - { offsetInCU: 0x49E1, offset: 0x14386, size: 0x8, addend: 0x0, symName: __ZN14StaticWallCellD2Ev, symObjAddr: 0xCF4, symBinAddr: 0x100007AF8, symSize: 0x88 }
  - { offsetInCU: 0x3B, offset: 0x143F0, size: 0x8, addend: 0x0, symName: _.str, symObjAddr: 0x1680, symBinAddr: 0x100031300, symSize: 0x0 }
  - { offsetInCU: 0x6B, offset: 0x14420, size: 0x8, addend: 0x0, symName: _.str.1, symObjAddr: 0x16A0, symBinAddr: 0x100031320, symSize: 0x0 }
  - { offsetInCU: 0x88, offset: 0x1443D, size: 0x8, addend: 0x0, symName: _.str.2, symObjAddr: 0x16E0, symBinAddr: 0x100031360, symSize: 0x0 }
  - { offsetInCU: 0x4B79, offset: 0x18F2E, size: 0x8, addend: 0x0, symName: __ZN14MovingWallCellC2Eiiff, symObjAddr: 0x0, symBinAddr: 0x100007C18, symSize: 0x414 }
  - { offsetInCU: 0x4BE5, offset: 0x18F9A, size: 0x8, addend: 0x0, symName: __ZN14MovingWallCellC1Eiiff, symObjAddr: 0x4FC, symBinAddr: 0x10000802C, symSize: 0x4C }
  - { offsetInCU: 0x4C47, offset: 0x18FFC, size: 0x8, addend: 0x0, symName: __ZN14MovingWallCellixEc, symObjAddr: 0x548, symBinAddr: 0x100008078, symSize: 0xD4 }
  - { offsetInCU: 0x4C7A, offset: 0x1902F, size: 0x8, addend: 0x0, symName: __ZNK14MovingWallCellixEc, symObjAddr: 0x650, symBinAddr: 0x10000814C, symSize: 0x1CC }
  - { offsetInCU: 0x4CAE, offset: 0x19063, size: 0x8, addend: 0x0, symName: __ZN14MovingWallCell5get_uEv, symObjAddr: 0x830, symBinAddr: 0x10000832C, symSize: 0x8C }
  - { offsetInCU: 0x4CD4, offset: 0x19089, size: 0x8, addend: 0x0, symName: __ZN14MovingWallCell5get_vEv, symObjAddr: 0x8BC, symBinAddr: 0x1000083B8, symSize: 0x8C }
  - { offsetInCU: 0x4CFA, offset: 0x190AF, size: 0x8, addend: 0x0, symName: __ZN14MovingWallCell5set_uEf, symObjAddr: 0x948, symBinAddr: 0x100008444, symSize: 0x9C }
  - { offsetInCU: 0x4D2E, offset: 0x190E3, size: 0x8, addend: 0x0, symName: __ZN14MovingWallCell5set_vEf, symObjAddr: 0x9E4, symBinAddr: 0x1000084E0, symSize: 0x9C }
  - { offsetInCU: 0x4D62, offset: 0x19117, size: 0x8, addend: 0x0, symName: __ZNK14MovingWallCell15get_descriptionEv, symObjAddr: 0xA80, symBinAddr: 0x10000857C, symSize: 0x3C }
  - { offsetInCU: 0x4D88, offset: 0x1913D, size: 0x8, addend: 0x0, symName: __ZN14MovingWallCellD1Ev, symObjAddr: 0xABC, symBinAddr: 0x1000085B8, symSize: 0x2C }
  - { offsetInCU: 0x4DB2, offset: 0x19167, size: 0x8, addend: 0x0, symName: __ZN14MovingWallCellD0Ev, symObjAddr: 0xAE8, symBinAddr: 0x1000085E4, symSize: 0x30 }
  - { offsetInCU: 0x4DDC, offset: 0x19191, size: 0x8, addend: 0x0, symName: __ZN14MovingWallCellD2Ev, symObjAddr: 0xC00, symBinAddr: 0x100008614, symSize: 0x88 }
  - { offsetInCU: 0x3B, offset: 0x19200, size: 0x8, addend: 0x0, symName: _.str, symObjAddr: 0x22280, symBinAddr: 0x1000313C0, symSize: 0x0 }
  - { offsetInCU: 0x6B, offset: 0x19230, size: 0x8, addend: 0x0, symName: _.str.1, symObjAddr: 0x222E0, symBinAddr: 0x100031420, symSize: 0x0 }
  - { offsetInCU: 0x88, offset: 0x1924D, size: 0x8, addend: 0x0, symName: _.str.2, symObjAddr: 0x22320, symBinAddr: 0x100031460, symSize: 0x0 }
  - { offsetInCU: 0xA5, offset: 0x1926A, size: 0x8, addend: 0x0, symName: _.str.3, symObjAddr: 0x22340, symBinAddr: 0x100031480, symSize: 0x0 }
  - { offsetInCU: 0xB6, offset: 0x1927B, size: 0x8, addend: 0x0, symName: _.str.4, symObjAddr: 0x22360, symBinAddr: 0x1000314A0, symSize: 0x0 }
  - { offsetInCU: 0xC7, offset: 0x1928C, size: 0x8, addend: 0x0, symName: _.str.5, symObjAddr: 0x22380, symBinAddr: 0x1000314C0, symSize: 0x0 }
  - { offsetInCU: 0xE4, offset: 0x192A9, size: 0x8, addend: 0x0, symName: _.str.6, symObjAddr: 0x223A0, symBinAddr: 0x1000314E0, symSize: 0x0 }
  - { offsetInCU: 0xF5, offset: 0x192BA, size: 0x8, addend: 0x0, symName: _.str.7, symObjAddr: 0x223C0, symBinAddr: 0x100031500, symSize: 0x0 }
  - { offsetInCU: 0x112, offset: 0x192D7, size: 0x8, addend: 0x0, symName: _.str.8, symObjAddr: 0x223E0, symBinAddr: 0x100031520, symSize: 0x0 }
  - { offsetInCU: 0x12F, offset: 0x192F4, size: 0x8, addend: 0x0, symName: _.str.9, symObjAddr: 0x22400, symBinAddr: 0x100031540, symSize: 0x0 }
  - { offsetInCU: 0x141, offset: 0x19306, size: 0x8, addend: 0x0, symName: _.str.10, symObjAddr: 0x22420, symBinAddr: 0x100031560, symSize: 0x0 }
  - { offsetInCU: 0x4CCE, offset: 0x1DE93, size: 0x8, addend: 0x0, symName: __ZNSt3__124__put_character_sequenceB8ue170006IcNS_11char_traitsIcEEEERNS_13basic_ostreamIT_T0_EES7_PKS4_m, symObjAddr: 0x10F04, symBinAddr: 0x10001956C, symSize: 0x744 }
  - { offsetInCU: 0x9E29, offset: 0x22FEE, size: 0x8, addend: 0x0, symName: __ZNSt3__1lsB8ue170006INS_11char_traitsIcEEEERNS_13basic_ostreamIcT_EES6_PKc, symObjAddr: 0x1770, symBinAddr: 0x100009E70, symSize: 0x48 }
  - { offsetInCU: 0x9E6F, offset: 0x23034, size: 0x8, addend: 0x0, symName: __ZNSt3__14endlB8ue170006IcNS_11char_traitsIcEEEERNS_13basic_ostreamIT_T0_EES7_, symObjAddr: 0x17E4, symBinAddr: 0x100009EE4, symSize: 0xD4 }
  - { offsetInCU: 0x9EAF, offset: 0x23074, size: 0x8, addend: 0x0, symName: __ZNSt3__1lsB8ue170006IcNS_11char_traitsIcEENS_9allocatorIcEEEERNS_13basic_ostreamIT_T0_EES9_RKNS_12basic_stringIS6_S7_T1_EE, symObjAddr: 0x18B8, symBinAddr: 0x100009FB8, symSize: 0x4C }
  - { offsetInCU: 0x9F07, offset: 0x230CC, size: 0x8, addend: 0x0, symName: __ZNSt3__1eqB8ue170006IcNS_11char_traitsIcEENS_9allocatorIcEEEEbRKNS_12basic_stringIT_T0_T1_EEPKS6_, symObjAddr: 0x7300, symBinAddr: 0x10000FA00, symSize: 0xC8 }
  - { offsetInCU: 0x9F6E, offset: 0x23133, size: 0x8, addend: 0x0, symName: __ZNSt3__112__to_addressB8ue170006INS_6vectorIP4CellNS_9allocatorIS3_EEEEEEPT_S8_, symObjAddr: 0x827C, symBinAddr: 0x1000108E4, symSize: 0x14 }
  - { offsetInCU: 0x9FA3, offset: 0x23168, size: 0x8, addend: 0x0, symName: __ZNSt3__119__libcpp_deallocateB8ue170006EPvmm, symObjAddr: 0x8474, symBinAddr: 0x100010ADC, symSize: 0x30 }
  - { offsetInCU: 0x9FEC, offset: 0x231B1, size: 0x8, addend: 0x0, symName: __ZNSt3__127__do_deallocate_handle_sizeB8ue170006IJEEEvPvmDpT_, symObjAddr: 0x84A4, symBinAddr: 0x100010B0C, symSize: 0x28 }
  - { offsetInCU: 0xA02B, offset: 0x231F0, size: 0x8, addend: 0x0, symName: __ZNSt3__124__libcpp_operator_deleteB8ue170006IJPvEEEvDpT_, symObjAddr: 0x84CC, symBinAddr: 0x100010B34, symSize: 0x24 }
  - { offsetInCU: 0xA061, offset: 0x23226, size: 0x8, addend: 0x0, symName: __ZNSt3__122__make_exception_guardB8ue170006INS_6vectorIP4CellNS_9allocatorIS3_EEE16__destroy_vectorEEENS_28__exception_guard_exceptionsIT_EES9_, symObjAddr: 0x8A54, symBinAddr: 0x1000110BC, symSize: 0x278 }
  - { offsetInCU: 0xA09A, offset: 0x2325F, size: 0x8, addend: 0x0, symName: __ZNSt3__119__allocate_at_leastB8ue170006INS_9allocatorIP4CellEEEENS_19__allocation_resultINS_16allocator_traitsIT_E7pointerEEERS7_m, symObjAddr: 0x9EF4, symBinAddr: 0x10001255C, symSize: 0x28C }
  - { offsetInCU: 0xA0DF, offset: 0x232A4, size: 0x8, addend: 0x0, symName: __ZNSt3__13minB8ue170006ImEERKT_S3_S3_, symObjAddr: 0xA290, symBinAddr: 0x1000128F8, symSize: 0x2C }
  - { offsetInCU: 0xA32D, offset: 0x234F2, size: 0x8, addend: 0x0, symName: __ZNSt3__13minB8ue170006ImNS_6__lessIvvEEEERKT_S5_S5_T0_, symObjAddr: 0xA31C, symBinAddr: 0x100012984, symSize: 0x1E8 }
  - { offsetInCU: 0xA3D4, offset: 0x23599, size: 0x8, addend: 0x0, symName: __ZNSt3__120__throw_length_errorB8ue170006EPKc, symObjAddr: 0xA614, symBinAddr: 0x100012C7C, symSize: 0x68 }
  - { offsetInCU: 0xA3FF, offset: 0x235C4, size: 0x8, addend: 0x0, symName: __ZNSt3__117__libcpp_allocateB8ue170006Emm, symObjAddr: 0xA7D0, symBinAddr: 0x100012E38, symSize: 0x28 }
  - { offsetInCU: 0xA43C, offset: 0x23601, size: 0x8, addend: 0x0, symName: __ZNSt3__121__libcpp_operator_newB8ue170006IJmEEEPvDpT_, symObjAddr: 0xA7F8, symBinAddr: 0x100012E60, symSize: 0x24 }
  - { offsetInCU: 0xA475, offset: 0x2363A, size: 0x8, addend: 0x0, symName: __ZNSt3__112__to_addressB8ue170006IP4CellEEPT_S4_, symObjAddr: 0xAA04, symBinAddr: 0x10001306C, symSize: 0x14 }
  - { offsetInCU: 0xA4AA, offset: 0x2366F, size: 0x8, addend: 0x0, symName: __ZNSt3__122__make_exception_guardB8ue170006INS_6vectorINS1_IP4CellNS_9allocatorIS3_EEEENS4_IS6_EEE16__destroy_vectorEEENS_28__exception_guard_exceptionsIT_EESB_, symObjAddr: 0xBE7C, symBinAddr: 0x1000144E4, symSize: 0x278 }
  - { offsetInCU: 0xA4E3, offset: 0x236A8, size: 0x8, addend: 0x0, symName: __ZNSt3__119__allocate_at_leastB8ue170006INS_9allocatorINS_6vectorIP4CellNS1_IS4_EEEEEEEENS_19__allocation_resultINS_16allocator_traitsIT_E7pointerEEERSA_m, symObjAddr: 0xD178, symBinAddr: 0x1000157E0, symSize: 0x28C }
  - { offsetInCU: 0xA528, offset: 0x236ED, size: 0x8, addend: 0x0, symName: __ZNSt3__130__uninitialized_allocator_copyB8ue170006INS_9allocatorIP4CellEEPS3_S5_S5_EET2_RT_T0_T1_S6_, symObjAddr: 0xE518, symBinAddr: 0x100016B80, symSize: 0x2DC }
  - { offsetInCU: 0xA5CE, offset: 0x23793, size: 0x8, addend: 0x0, symName: __ZNSt3__114__unwrap_rangeB8ue170006IPP4CellS3_EENS_4pairIT0_S5_EET_S7_, symObjAddr: 0xE7F4, symBinAddr: 0x100016E5C, symSize: 0x350 }
  - { offsetInCU: 0xA61C, offset: 0x237E1, size: 0x8, addend: 0x0, symName: __ZNSt3__135__uninitialized_allocator_copy_implB8ue170006INS_9allocatorIP4CellEES3_S3_S3_LPv0EEEPT2_RT_PT0_SB_S7_, symObjAddr: 0xEB44, symBinAddr: 0x1000171AC, symSize: 0x38 }
  - { offsetInCU: 0xA69F, offset: 0x23864, size: 0x8, addend: 0x0, symName: __ZNSt3__113__unwrap_iterB8ue170006IPP4CellNS_18__unwrap_iter_implIS3_Lb1EEELi0EEEDTclsrT0_8__unwrapclsr3stdE7declvalIT_EEEES7_, symObjAddr: 0xEB7C, symBinAddr: 0x1000171E4, symSize: 0x24 }
  - { offsetInCU: 0xA6E3, offset: 0x238A8, size: 0x8, addend: 0x0, symName: __ZNSt3__113__rewrap_iterB8ue170006IPP4CellS3_NS_18__unwrap_iter_implIS3_Lb1EEEEET_S6_T0_, symObjAddr: 0xEBA0, symBinAddr: 0x100017208, symSize: 0x48 }
  - { offsetInCU: 0xA738, offset: 0x238FD, size: 0x8, addend: 0x0, symName: __ZNSt3__19make_pairB8ue170006IPP4CellS3_EENS_4pairINS_18__unwrap_ref_decayIT_E4typeENS5_IT0_E4typeEEEOS6_OS9_, symObjAddr: 0xEBE8, symBinAddr: 0x100017250, symSize: 0x20C }
  - { offsetInCU: 0xA88E, offset: 0x23A53, size: 0x8, addend: 0x0, symName: __ZNSt3__14copyB8ue170006IPP4CellS3_EET0_T_S5_S4_, symObjAddr: 0xEF68, symBinAddr: 0x1000175D0, symSize: 0x26C }
  - { offsetInCU: 0xA8EB, offset: 0x23AB0, size: 0x8, addend: 0x0, symName: __ZNSt3__16__copyB8ue170006INS_17_ClassicAlgPolicyEPP4CellS4_S4_EENS_4pairIT0_T2_EES6_T1_S7_, symObjAddr: 0xF1D4, symBinAddr: 0x10001783C, symSize: 0x22C }
  - { offsetInCU: 0xA95A, offset: 0x23B1F, size: 0x8, addend: 0x0, symName: __ZNSt3__123__dispatch_copy_or_moveB8ue170006INS_17_ClassicAlgPolicyENS_11__copy_loopIS1_EENS_14__copy_trivialEPP4CellS7_S7_EENS_4pairIT2_T4_EES9_T3_SA_, symObjAddr: 0xF400, symBinAddr: 0x100017A68, symSize: 0x22C }
  - { offsetInCU: 0xA9DB, offset: 0x23BA0, size: 0x8, addend: 0x0, symName: __ZNSt3__121__unwrap_and_dispatchB8ue170006INS_10__overloadINS_11__copy_loopINS_17_ClassicAlgPolicyEEENS_14__copy_trivialEEEPP4CellS9_S9_Li0EEENS_4pairIT0_T2_EESB_T1_SC_, symObjAddr: 0xF62C, symBinAddr: 0x100017C94, symSize: 0x5A4 }
  - { offsetInCU: 0xAAF8, offset: 0x23CBD, size: 0x8, addend: 0x0, symName: __ZNSt3__114__rewrap_rangeB8ue170006IPP4CellS3_EET_S4_T0_, symObjAddr: 0xFE00, symBinAddr: 0x100018468, symSize: 0x2C }
  - { offsetInCU: 0xAB44, offset: 0x23D09, size: 0x8, addend: 0x0, symName: __ZNSt3__119__copy_trivial_implB8ue170006IP4CellS2_EENS_4pairIPT_PT0_EES5_S5_S7_, symObjAddr: 0xFE2C, symBinAddr: 0x100018494, symSize: 0x3B4 }
  - { offsetInCU: 0xABB4, offset: 0x23D79, size: 0x8, addend: 0x0, symName: __ZNSt3__119__constexpr_memmoveB8ue170006IP4CellS2_Li0EEEPT_S4_PT0_NS_15__element_countE, symObjAddr: 0x101E0, symBinAddr: 0x100018848, symSize: 0x64 }
  - { offsetInCU: 0xAC23, offset: 0x23DE8, size: 0x8, addend: 0x0, symName: __ZNSt3__19make_pairB8ue170006IRPP4CellS3_EENS_4pairINS_18__unwrap_ref_decayIT_E4typeENS6_IT0_E4typeEEEOS7_OSA_, symObjAddr: 0x10244, symBinAddr: 0x1000188AC, symSize: 0x20C }
  - { offsetInCU: 0xACC8, offset: 0x23E8D, size: 0x8, addend: 0x0, symName: __ZNSt3__116__pad_and_outputB8ue170006IcNS_11char_traitsIcEEEENS_19ostreambuf_iteratorIT_T0_EES6_PKS4_S8_S8_RNS_8ios_baseES4_, symObjAddr: 0x11710, symBinAddr: 0x100019D38, symSize: 0x760 }
  - { offsetInCU: 0xADA5, offset: 0x23F6A, size: 0x8, addend: 0x0, symName: __ZNSt3__19use_facetB8ue170006INS_5ctypeIcEEEERKT_RKNS_6localeE, symObjAddr: 0x12CF8, symBinAddr: 0x10001B014, symSize: 0x2C }
  - { offsetInCU: 0xB27B, offset: 0x24440, size: 0x8, addend: 0x0, symName: __ZNSt3__122__make_exception_guardB8ue170006INS_6vectorIiNS_9allocatorIiEEE16__destroy_vectorEEENS_28__exception_guard_exceptionsIT_EES7_, symObjAddr: 0x134D8, symBinAddr: 0x10001B66C, symSize: 0x278 }
  - { offsetInCU: 0xB2B4, offset: 0x24479, size: 0x8, addend: 0x0, symName: __ZNSt3__119__allocate_at_leastB8ue170006INS_9allocatorIiEEEENS_19__allocation_resultINS_16allocator_traitsIT_E7pointerEEERS5_m, symObjAddr: 0x14980, symBinAddr: 0x10001CB14, symSize: 0x28C }
  - { offsetInCU: 0xB2F9, offset: 0x244BE, size: 0x8, addend: 0x0, symName: __ZNSt3__112__to_addressB8ue170006IiEEPT_S2_, symObjAddr: 0x14FF8, symBinAddr: 0x10001D18C, symSize: 0x14 }
  - { offsetInCU: 0xB32E, offset: 0x244F3, size: 0x8, addend: 0x0, symName: __ZNSt3__122__make_exception_guardB8ue170006INS_6vectorINS1_IiNS_9allocatorIiEEEENS2_IS4_EEE16__destroy_vectorEEENS_28__exception_guard_exceptionsIT_EES9_, symObjAddr: 0x16554, symBinAddr: 0x10001E6E8, symSize: 0x278 }
  - { offsetInCU: 0xB367, offset: 0x2452C, size: 0x8, addend: 0x0, symName: __ZNSt3__119__allocate_at_leastB8ue170006INS_9allocatorINS_6vectorIiNS1_IiEEEEEEEENS_19__allocation_resultINS_16allocator_traitsIT_E7pointerEEERS8_m, symObjAddr: 0x17A04, symBinAddr: 0x10001FB98, symSize: 0x28C }
  - { offsetInCU: 0xB3AC, offset: 0x24571, size: 0x8, addend: 0x0, symName: __ZNSt3__112__to_addressB8ue170006INS_6vectorIiNS_9allocatorIiEEEEEEPT_S6_, symObjAddr: 0x180A0, symBinAddr: 0x100020234, symSize: 0x14 }
  - { offsetInCU: 0xB3E1, offset: 0x245A6, size: 0x8, addend: 0x0, symName: __ZNSt3__130__uninitialized_allocator_copyB8ue170006INS_9allocatorIiEEPiS3_S3_EET2_RT_T0_T1_S4_, symObjAddr: 0x190A0, symBinAddr: 0x100021234, symSize: 0x2DC }
  - { offsetInCU: 0xB487, offset: 0x2464C, size: 0x8, addend: 0x0, symName: __ZNSt3__114__unwrap_rangeB8ue170006IPiS1_EENS_4pairIT0_S3_EET_S5_, symObjAddr: 0x1937C, symBinAddr: 0x100021510, symSize: 0x350 }
  - { offsetInCU: 0xB4D5, offset: 0x2469A, size: 0x8, addend: 0x0, symName: __ZNSt3__135__uninitialized_allocator_copy_implB8ue170006INS_9allocatorIiEEiiiLPv0EEEPT2_RT_PT0_S9_S5_, symObjAddr: 0x196CC, symBinAddr: 0x100021860, symSize: 0x38 }
  - { offsetInCU: 0xB558, offset: 0x2471D, size: 0x8, addend: 0x0, symName: __ZNSt3__113__unwrap_iterB8ue170006IPiNS_18__unwrap_iter_implIS1_Lb1EEELi0EEEDTclsrT0_8__unwrapclsr3stdE7declvalIT_EEEES5_, symObjAddr: 0x19704, symBinAddr: 0x100021898, symSize: 0x24 }
  - { offsetInCU: 0xB59C, offset: 0x24761, size: 0x8, addend: 0x0, symName: __ZNSt3__113__rewrap_iterB8ue170006IPiS1_NS_18__unwrap_iter_implIS1_Lb1EEEEET_S4_T0_, symObjAddr: 0x19728, symBinAddr: 0x1000218BC, symSize: 0x48 }
  - { offsetInCU: 0xB5F1, offset: 0x247B6, size: 0x8, addend: 0x0, symName: __ZNSt3__19make_pairB8ue170006IPiS1_EENS_4pairINS_18__unwrap_ref_decayIT_E4typeENS3_IT0_E4typeEEEOS4_OS7_, symObjAddr: 0x19770, symBinAddr: 0x100021904, symSize: 0x20C }
  - { offsetInCU: 0xB747, offset: 0x2490C, size: 0x8, addend: 0x0, symName: __ZNSt3__14copyB8ue170006IPiS1_EET0_T_S3_S2_, symObjAddr: 0x19AF0, symBinAddr: 0x100021C84, symSize: 0x26C }
  - { offsetInCU: 0xB7A4, offset: 0x24969, size: 0x8, addend: 0x0, symName: __ZNSt3__16__copyB8ue170006INS_17_ClassicAlgPolicyEPiS2_S2_EENS_4pairIT0_T2_EES4_T1_S5_, symObjAddr: 0x19D5C, symBinAddr: 0x100021EF0, symSize: 0x22C }
  - { offsetInCU: 0xB813, offset: 0x249D8, size: 0x8, addend: 0x0, symName: __ZNSt3__123__dispatch_copy_or_moveB8ue170006INS_17_ClassicAlgPolicyENS_11__copy_loopIS1_EENS_14__copy_trivialEPiS5_S5_EENS_4pairIT2_T4_EES7_T3_S8_, symObjAddr: 0x19F88, symBinAddr: 0x10002211C, symSize: 0x22C }
  - { offsetInCU: 0xB894, offset: 0x24A59, size: 0x8, addend: 0x0, symName: __ZNSt3__121__unwrap_and_dispatchB8ue170006INS_10__overloadINS_11__copy_loopINS_17_ClassicAlgPolicyEEENS_14__copy_trivialEEEPiS7_S7_Li0EEENS_4pairIT0_T2_EES9_T1_SA_, symObjAddr: 0x1A1B4, symBinAddr: 0x100022348, symSize: 0x5A4 }
  - { offsetInCU: 0xB92F, offset: 0x24AF4, size: 0x8, addend: 0x0, symName: __ZNSt3__114__rewrap_rangeB8ue170006IPiS1_EET_S2_T0_, symObjAddr: 0x1A988, symBinAddr: 0x100022B1C, symSize: 0x2C }
  - { offsetInCU: 0xB97B, offset: 0x24B40, size: 0x8, addend: 0x0, symName: __ZNSt3__119__copy_trivial_implB8ue170006IiiEENS_4pairIPT_PT0_EES3_S3_S5_, symObjAddr: 0x1A9B4, symBinAddr: 0x100022B48, symSize: 0x3B4 }
  - { offsetInCU: 0xB9EB, offset: 0x24BB0, size: 0x8, addend: 0x0, symName: __ZNSt3__119__constexpr_memmoveB8ue170006IiiLi0EEEPT_S2_PT0_NS_15__element_countE, symObjAddr: 0x1AD68, symBinAddr: 0x100022EFC, symSize: 0x64 }
  - { offsetInCU: 0xBA5A, offset: 0x24C1F, size: 0x8, addend: 0x0, symName: __ZNSt3__19make_pairB8ue170006IRPiS1_EENS_4pairINS_18__unwrap_ref_decayIT_E4typeENS4_IT0_E4typeEEEOS5_OS8_, symObjAddr: 0x1ADCC, symBinAddr: 0x100022F60, symSize: 0x20C }
  - { offsetInCU: 0xBAFF, offset: 0x24CC4, size: 0x8, addend: 0x0, symName: __ZNSt3__122__make_exception_guardB8ue170006INS_6vectorINS1_INS1_IiNS_9allocatorIiEEEENS2_IS4_EEEENS2_IS6_EEE16__destroy_vectorEEENS_28__exception_guard_exceptionsIT_EESB_, symObjAddr: 0x1C200, symBinAddr: 0x100024394, symSize: 0x278 }
  - { offsetInCU: 0xBB38, offset: 0x24CFD, size: 0x8, addend: 0x0, symName: __ZNSt3__119__allocate_at_leastB8ue170006INS_9allocatorINS_6vectorINS2_IiNS1_IiEEEENS1_IS4_EEEEEEEENS_19__allocation_resultINS_16allocator_traitsIT_E7pointerEEERSA_m, symObjAddr: 0x1D6B0, symBinAddr: 0x100025844, symSize: 0x28C }
  - { offsetInCU: 0xBB7D, offset: 0x24D42, size: 0x8, addend: 0x0, symName: __ZNSt3__112__to_addressB8ue170006INS_6vectorINS1_IiNS_9allocatorIiEEEENS2_IS4_EEEEEEPT_S8_, symObjAddr: 0x1DD4C, symBinAddr: 0x100025EE0, symSize: 0x14 }
  - { offsetInCU: 0xBBB2, offset: 0x24D77, size: 0x8, addend: 0x0, symName: __ZNSt3__130__uninitialized_allocator_copyB8ue170006INS_9allocatorINS_6vectorIiNS1_IiEEEEEEPS4_S6_S6_EET2_RT_T0_T1_S7_, symObjAddr: 0x1ED4C, symBinAddr: 0x100026EE0, symSize: 0x2DC }
  - { offsetInCU: 0xBC58, offset: 0x24E1D, size: 0x8, addend: 0x0, symName: __ZNSt3__114__unwrap_rangeB8ue170006IPNS_6vectorIiNS_9allocatorIiEEEES5_EENS_4pairIT0_S7_EET_S9_, symObjAddr: 0x1F028, symBinAddr: 0x1000271BC, symSize: 0x350 }
  - { offsetInCU: 0xBCA6, offset: 0x24E6B, size: 0x8, addend: 0x0, symName: __ZNSt3__135__uninitialized_allocator_copy_implB8ue170006INS_9allocatorINS_6vectorIiNS1_IiEEEEEEPS4_S6_S6_EET2_RT_T0_T1_S7_, symObjAddr: 0x1F378, symBinAddr: 0x10002750C, symSize: 0x520 }
  - { offsetInCU: 0xBD52, offset: 0x24F17, size: 0x8, addend: 0x0, symName: __ZNSt3__113__unwrap_iterB8ue170006IPNS_6vectorIiNS_9allocatorIiEEEENS_18__unwrap_iter_implIS5_Lb1EEELi0EEEDTclsrT0_8__unwrapclsr3stdE7declvalIT_EEEES9_, symObjAddr: 0x1F898, symBinAddr: 0x100027A2C, symSize: 0x24 }
  - { offsetInCU: 0xBD96, offset: 0x24F5B, size: 0x8, addend: 0x0, symName: __ZNSt3__113__rewrap_iterB8ue170006IPNS_6vectorIiNS_9allocatorIiEEEES5_NS_18__unwrap_iter_implIS5_Lb1EEEEET_S8_T0_, symObjAddr: 0x1F8BC, symBinAddr: 0x100027A50, symSize: 0x48 }
  - { offsetInCU: 0xBDEB, offset: 0x24FB0, size: 0x8, addend: 0x0, symName: __ZNSt3__19make_pairB8ue170006IPNS_6vectorIiNS_9allocatorIiEEEES5_EENS_4pairINS_18__unwrap_ref_decayIT_E4typeENS7_IT0_E4typeEEEOS8_OSB_, symObjAddr: 0x1F904, symBinAddr: 0x100027A98, symSize: 0x20C }
  - { offsetInCU: 0xBF11, offset: 0x250D6, size: 0x8, addend: 0x0, symName: __ZNSt3__122__make_exception_guardB8ue170006INS_29_AllocatorDestroyRangeReverseINS_9allocatorINS_6vectorIiNS2_IiEEEEEEPS5_EEEENS_28__exception_guard_exceptionsIT_EESA_, symObjAddr: 0x1FC84, symBinAddr: 0x100027E18, symSize: 0x1F8 }
  - { offsetInCU: 0xBF48, offset: 0x2510D, size: 0x8, addend: 0x0, symName: __ZNSt3__119__allocator_destroyB8ue170006INS_9allocatorINS_6vectorIiNS1_IiEEEEEENS_16reverse_iteratorIPS4_EES8_EEvRT_T0_T1_, symObjAddr: 0x20610, symBinAddr: 0x1000287A4, symSize: 0x2B8 }
  - { offsetInCU: 0xBFB5, offset: 0x2517A, size: 0x8, addend: 0x0, symName: __ZNSt3__1neB8ue170006IPNS_6vectorIiNS_9allocatorIiEEEES5_EEbRKNS_16reverse_iteratorIT_EERKNS6_IT0_EE, symObjAddr: 0x208FC, symBinAddr: 0x100028A90, symSize: 0x48 }
  - { offsetInCU: 0xC001, offset: 0x251C6, size: 0x8, addend: 0x0, symName: __ZNSt3__112__to_addressB8ue170006INS_16reverse_iteratorIPNS_6vectorIiNS_9allocatorIiEEEEEEvEEu7__decayIDTclsr19__to_address_helperIT_EE6__callclsr3stdE7declvalIRKS8_EEEEESA_, symObjAddr: 0x20944, symBinAddr: 0x100028AD8, symSize: 0x24 }
  - { offsetInCU: 0xC50F, offset: 0x256D4, size: 0x8, addend: 0x0, symName: __ZSt28__throw_bad_array_new_lengthB8ue170006v, symObjAddr: 0xA798, symBinAddr: 0x100012E00, symSize: 0x38 }
  - { offsetInCU: 0xF049, offset: 0x2820E, size: 0x8, addend: 0x0, symName: __ZN5FieldC2Eii, symObjAddr: 0x0, symBinAddr: 0x100008734, symSize: 0x638 }
  - { offsetInCU: 0xF0C7, offset: 0x2828C, size: 0x8, addend: 0x0, symName: __ZNSt3__16vectorINS0_IP4CellNS_9allocatorIS2_EEEENS3_IS5_EEEC1B8ue170006Ev, symObjAddr: 0x638, symBinAddr: 0x100008D6C, symSize: 0x2C }
  - { offsetInCU: 0xF0EF, offset: 0x282B4, size: 0x8, addend: 0x0, symName: __ZNSt3__16vectorIP4CellNS_9allocatorIS2_EEEC1Em, symObjAddr: 0x698, symBinAddr: 0x100008D98, symSize: 0x34 }
  - { offsetInCU: 0xF129, offset: 0x282EE, size: 0x8, addend: 0x0, symName: __ZNSt3__16vectorINS0_IP4CellNS_9allocatorIS2_EEEENS3_IS5_EEEC1EmRKS5_, symObjAddr: 0x6CC, symBinAddr: 0x100008DCC, symSize: 0x3C }
  - { offsetInCU: 0xF172, offset: 0x28337, size: 0x8, addend: 0x0, symName: __ZNSt3__16vectorINS0_IP4CellNS_9allocatorIS2_EEEENS3_IS5_EEEaSB8ue170006EOS7_, symObjAddr: 0x708, symBinAddr: 0x100008E08, symSize: 0x34 }
  - { offsetInCU: 0xF1A8, offset: 0x2836D, size: 0x8, addend: 0x0, symName: __ZNSt3__16vectorINS0_IP4CellNS_9allocatorIS2_EEEENS3_IS5_EEED1B8ue170006Ev, symObjAddr: 0x73C, symBinAddr: 0x100008E3C, symSize: 0x2C }
  - { offsetInCU: 0xF1D0, offset: 0x28395, size: 0x8, addend: 0x0, symName: __ZNSt3__16vectorIP4CellNS_9allocatorIS2_EEED1B8ue170006Ev, symObjAddr: 0x768, symBinAddr: 0x100008E68, symSize: 0x2C }
  - { offsetInCU: 0xF1F8, offset: 0x283BD, size: 0x8, addend: 0x0, symName: __ZN5Field8set_cellEiiP4Cell, symObjAddr: 0x794, symBinAddr: 0x100008E94, symSize: 0x21C }
  - { offsetInCU: 0xF248, offset: 0x2840D, size: 0x8, addend: 0x0, symName: __ZN5FieldC1Eii, symObjAddr: 0x9B0, symBinAddr: 0x1000090B0, symSize: 0x3C }
  - { offsetInCU: 0xF28E, offset: 0x28453, size: 0x8, addend: 0x0, symName: __ZN5FieldD2Ev, symObjAddr: 0x9EC, symBinAddr: 0x1000090EC, symSize: 0x278 }
  - { offsetInCU: 0xF2F4, offset: 0x284B9, size: 0x8, addend: 0x0, symName: __ZNSt3__16vectorINS0_IP4CellNS_9allocatorIS2_EEEENS3_IS5_EEEixB8ue170006Em, symObjAddr: 0xC64, symBinAddr: 0x100009364, symSize: 0x74 }
  - { offsetInCU: 0xF32A, offset: 0x284EF, size: 0x8, addend: 0x0, symName: __ZNSt3__16vectorIP4CellNS_9allocatorIS2_EEEixB8ue170006Em, symObjAddr: 0xCD8, symBinAddr: 0x1000093D8, symSize: 0x6C }
  - { offsetInCU: 0xF360, offset: 0x28525, size: 0x8, addend: 0x0, symName: __ZN5FieldD1Ev, symObjAddr: 0xD44, symBinAddr: 0x100009444, symSize: 0x2C }
  - { offsetInCU: 0xF38A, offset: 0x2854F, size: 0x8, addend: 0x0, symName: __ZNK5Field9get_xSizeEv, symObjAddr: 0xD70, symBinAddr: 0x100009470, symSize: 0x88 }
  - { offsetInCU: 0xF3B0, offset: 0x28575, size: 0x8, addend: 0x0, symName: __ZNK5Field9get_ySizeEv, symObjAddr: 0xDF8, symBinAddr: 0x1000094F8, symSize: 0x8C }
  - { offsetInCU: 0xF3D6, offset: 0x2859B, size: 0x8, addend: 0x0, symName: __ZN5Field8get_cellEii, symObjAddr: 0xE84, symBinAddr: 0x100009584, symSize: 0x20C }
  - { offsetInCU: 0xF418, offset: 0x285DD, size: 0x8, addend: 0x0, symName: __ZN5Field7displayEv, symObjAddr: 0x1090, symBinAddr: 0x100009790, symSize: 0x6E0 }
  - { offsetInCU: 0xF4B2, offset: 0x28677, size: 0x8, addend: 0x0, symName: __ZNSt3__113basic_ostreamIcNS_11char_traitsIcEEElsB8ue170006EPFRS3_S4_E, symObjAddr: 0x17B8, symBinAddr: 0x100009EB8, symSize: 0x2C }
  - { offsetInCU: 0xF4E4, offset: 0x286A9, size: 0x8, addend: 0x0, symName: __ZN5Field12display_testEv, symObjAddr: 0x1904, symBinAddr: 0x10000A004, symSize: 0x4C8 }
  - { offsetInCU: 0xF540, offset: 0x28705, size: 0x8, addend: 0x0, symName: __ZN5Field6updateEv, symObjAddr: 0x1DCC, symBinAddr: 0x10000A4CC, symSize: 0x5428 }
  - { offsetInCU: 0xF692, offset: 0x28857, size: 0x8, addend: 0x0, symName: __ZNSt3__16vectorIiNS_9allocatorIiEEEC1EmRKi, symObjAddr: 0x71F4, symBinAddr: 0x10000F8F4, symSize: 0x3C }
  - { offsetInCU: 0xF6DB, offset: 0x288A0, size: 0x8, addend: 0x0, symName: __ZNSt3__16vectorINS0_IiNS_9allocatorIiEEEENS1_IS3_EEEC1EmRKS3_, symObjAddr: 0x7230, symBinAddr: 0x10000F930, symSize: 0x3C }
  - { offsetInCU: 0xF724, offset: 0x288E9, size: 0x8, addend: 0x0, symName: __ZNSt3__16vectorINS0_INS0_IiNS_9allocatorIiEEEENS1_IS3_EEEENS1_IS5_EEEC1EmRKS5_, symObjAddr: 0x726C, symBinAddr: 0x10000F96C, symSize: 0x3C }
  - { offsetInCU: 0xF76D, offset: 0x28932, size: 0x8, addend: 0x0, symName: __ZNSt3__16vectorINS0_IiNS_9allocatorIiEEEENS1_IS3_EEED1B8ue170006Ev, symObjAddr: 0x72A8, symBinAddr: 0x10000F9A8, symSize: 0x2C }
  - { offsetInCU: 0xF795, offset: 0x2895A, size: 0x8, addend: 0x0, symName: __ZNSt3__16vectorIiNS_9allocatorIiEEED1B8ue170006Ev, symObjAddr: 0x72D4, symBinAddr: 0x10000F9D4, symSize: 0x2C }
  - { offsetInCU: 0xF7BD, offset: 0x28982, size: 0x8, addend: 0x0, symName: __ZNSt3__16vectorINS0_INS0_IiNS_9allocatorIiEEEENS1_IS3_EEEENS1_IS5_EEEixB8ue170006Em, symObjAddr: 0x73C8, symBinAddr: 0x10000FAC8, symSize: 0x74 }
  - { offsetInCU: 0xF7F3, offset: 0x289B8, size: 0x8, addend: 0x0, symName: __ZNSt3__16vectorINS0_IiNS_9allocatorIiEEEENS1_IS3_EEEixB8ue170006Em, symObjAddr: 0x743C, symBinAddr: 0x10000FB3C, symSize: 0x74 }
  - { offsetInCU: 0xF829, offset: 0x289EE, size: 0x8, addend: 0x0, symName: __ZNSt3__16vectorIiNS_9allocatorIiEEEixB8ue170006Em, symObjAddr: 0x74B0, symBinAddr: 0x10000FBB0, symSize: 0x6C }
  - { offsetInCU: 0xF85F, offset: 0x28A24, size: 0x8, addend: 0x0, symName: __ZNSt3__16vectorINS0_INS0_IiNS_9allocatorIiEEEENS1_IS3_EEEENS1_IS5_EEED1B8ue170006Ev, symObjAddr: 0x751C, symBinAddr: 0x10000FC1C, symSize: 0x2C }
  - { offsetInCU: 0xF887, offset: 0x28A4C, size: 0x8, addend: 0x0, symName: __ZNSt3__16vectorINS0_IP4CellNS_9allocatorIS2_EEEENS3_IS5_EEEC2B8ue170006Ev, symObjAddr: 0x75D4, symBinAddr: 0x10000FC48, symSize: 0x2E8 }
  - { offsetInCU: 0xF8BA, offset: 0x28A7F, size: 0x8, addend: 0x0, symName: __ZNSt3__117__compressed_pairIPNS_6vectorIP4CellNS_9allocatorIS3_EEEENS4_IS6_EEEC1B8ue170006IDnNS_18__default_init_tagEEEOT_OT0_, symObjAddr: 0x78BC, symBinAddr: 0x10000FF30, symSize: 0x3C }
  - { offsetInCU: 0xF910, offset: 0x28AD5, size: 0x8, addend: 0x0, symName: __ZNSt3__117__compressed_pairIPNS_6vectorIP4CellNS_9allocatorIS3_EEEENS4_IS6_EEEC2B8ue170006IDnNS_18__default_init_tagEEEOT_OT0_, symObjAddr: 0x7904, symBinAddr: 0x10000FF6C, symSize: 0x40 }
  - { offsetInCU: 0xF966, offset: 0x28B2B, size: 0x8, addend: 0x0, symName: __ZNSt3__122__compressed_pair_elemIPNS_6vectorIP4CellNS_9allocatorIS3_EEEELi0ELb0EEC2B8ue170006IDnvEEOT_, symObjAddr: 0x7944, symBinAddr: 0x10000FFAC, symSize: 0x64 }
  - { offsetInCU: 0xF9A6, offset: 0x28B6B, size: 0x8, addend: 0x0, symName: __ZNSt3__122__compressed_pair_elemINS_9allocatorINS_6vectorIP4CellNS1_IS4_EEEEEELi1ELb1EEC2B8ue170006ENS_18__default_init_tagE, symObjAddr: 0x79A8, symBinAddr: 0x100010010, symSize: 0x2C }
  - { offsetInCU: 0xF9D8, offset: 0x28B9D, size: 0x8, addend: 0x0, symName: __ZNSt3__19allocatorINS_6vectorIP4CellNS0_IS3_EEEEEC2B8ue170006Ev, symObjAddr: 0x79D4, symBinAddr: 0x10001003C, symSize: 0x2C }
  - { offsetInCU: 0xFA00, offset: 0x28BC5, size: 0x8, addend: 0x0, symName: __ZNSt3__116__non_trivial_ifILb1ENS_9allocatorINS_6vectorIP4CellNS1_IS4_EEEEEEEC2B8ue170006Ev, symObjAddr: 0x7A00, symBinAddr: 0x100010068, symSize: 0x14 }
  - { offsetInCU: 0xFA28, offset: 0x28BED, size: 0x8, addend: 0x0, symName: __ZNSt3__16vectorINS0_IP4CellNS_9allocatorIS2_EEEENS3_IS5_EEED2B8ue170006Ev, symObjAddr: 0x7A14, symBinAddr: 0x10001007C, symSize: 0x1F8 }
  - { offsetInCU: 0xFA51, offset: 0x28C16, size: 0x8, addend: 0x0, symName: __ZNSt3__16vectorINS0_IP4CellNS_9allocatorIS2_EEEENS3_IS5_EEE16__destroy_vectorC1B8ue170006ERS7_, symObjAddr: 0x7C0C, symBinAddr: 0x100010274, symSize: 0x34 }
  - { offsetInCU: 0xFA88, offset: 0x28C4D, size: 0x8, addend: 0x0, symName: __ZNSt3__16vectorINS0_IP4CellNS_9allocatorIS2_EEEENS3_IS5_EEE16__destroy_vectorclB8ue170006Ev, symObjAddr: 0x7C40, symBinAddr: 0x1000102A8, symSize: 0x228 }
  - { offsetInCU: 0xFAAC, offset: 0x28C71, size: 0x8, addend: 0x0, symName: __ZNSt3__16vectorINS0_IP4CellNS_9allocatorIS2_EEEENS3_IS5_EEE16__destroy_vectorC2B8ue170006ERS7_, symObjAddr: 0x7E68, symBinAddr: 0x1000104D0, symSize: 0x70 }
  - { offsetInCU: 0xFAE3, offset: 0x28CA8, size: 0x8, addend: 0x0, symName: __ZNSt3__16vectorINS0_IP4CellNS_9allocatorIS2_EEEENS3_IS5_EEE7__clearB8ue170006Ev, symObjAddr: 0x7ED8, symBinAddr: 0x100010540, symSize: 0x64 }
  - { offsetInCU: 0xFB07, offset: 0x28CCC, size: 0x8, addend: 0x0, symName: __ZNKSt3__16vectorINS0_IP4CellNS_9allocatorIS2_EEEENS3_IS5_EEE17__annotate_deleteB8ue170006Ev, symObjAddr: 0x7F3C, symBinAddr: 0x1000105A4, symSize: 0xE8 }
  - { offsetInCU: 0xFB2B, offset: 0x28CF0, size: 0x8, addend: 0x0, symName: __ZNSt3__116allocator_traitsINS_9allocatorINS_6vectorIP4CellNS1_IS4_EEEEEEE10deallocateB8ue170006ERS7_PS6_m, symObjAddr: 0x8024, symBinAddr: 0x10001068C, symSize: 0x34 }
  - { offsetInCU: 0xFB6C, offset: 0x28D31, size: 0x8, addend: 0x0, symName: __ZNSt3__16vectorINS0_IP4CellNS_9allocatorIS2_EEEENS3_IS5_EEE7__allocB8ue170006Ev, symObjAddr: 0x8058, symBinAddr: 0x1000106C0, symSize: 0x28 }
  - { offsetInCU: 0xFB90, offset: 0x28D55, size: 0x8, addend: 0x0, symName: __ZNKSt3__16vectorINS0_IP4CellNS_9allocatorIS2_EEEENS3_IS5_EEE8capacityB8ue170006Ev, symObjAddr: 0x8080, symBinAddr: 0x1000106E8, symSize: 0xBC }
  - { offsetInCU: 0xFBB4, offset: 0x28D79, size: 0x8, addend: 0x0, symName: __ZNSt3__16vectorINS0_IP4CellNS_9allocatorIS2_EEEENS3_IS5_EEE22__base_destruct_at_endB8ue170006EPS5_, symObjAddr: 0x813C, symBinAddr: 0x1000107A4, symSize: 0x114 }
  - { offsetInCU: 0xFBF6, offset: 0x28DBB, size: 0x8, addend: 0x0, symName: __ZNSt3__116allocator_traitsINS_9allocatorINS_6vectorIP4CellNS1_IS4_EEEEEEE7destroyB8ue170006IS6_vEEvRS7_PT_, symObjAddr: 0x8250, symBinAddr: 0x1000108B8, symSize: 0x2C }
  - { offsetInCU: 0xFC32, offset: 0x28DF7, size: 0x8, addend: 0x0, symName: __ZNSt3__19allocatorINS_6vectorIP4CellNS0_IS3_EEEEE7destroyB8ue170006EPS5_, symObjAddr: 0x8290, symBinAddr: 0x1000108F8, symSize: 0x28 }
  - { offsetInCU: 0xFC64, offset: 0x28E29, size: 0x8, addend: 0x0, symName: __ZNKSt3__16vectorINS0_IP4CellNS_9allocatorIS2_EEEENS3_IS5_EEE31__annotate_contiguous_containerEPKvS9_S9_S9_, symObjAddr: 0x82B8, symBinAddr: 0x100010920, symSize: 0x58 }
  - { offsetInCU: 0xFCC4, offset: 0x28E89, size: 0x8, addend: 0x0, symName: __ZNKSt3__16vectorINS0_IP4CellNS_9allocatorIS2_EEEENS3_IS5_EEE4dataB8ue170006Ev, symObjAddr: 0x8310, symBinAddr: 0x100010978, symSize: 0x64 }
  - { offsetInCU: 0xFCE8, offset: 0x28EAD, size: 0x8, addend: 0x0, symName: __ZNKSt3__16vectorINS0_IP4CellNS_9allocatorIS2_EEEENS3_IS5_EEE4sizeB8ue170006Ev, symObjAddr: 0x8374, symBinAddr: 0x1000109DC, symSize: 0xB0 }
  - { offsetInCU: 0xFD0C, offset: 0x28ED1, size: 0x8, addend: 0x0, symName: __ZNSt3__19allocatorINS_6vectorIP4CellNS0_IS3_EEEEE10deallocateB8ue170006EPS5_m, symObjAddr: 0x8424, symBinAddr: 0x100010A8C, symSize: 0x50 }
  - { offsetInCU: 0xFD4C, offset: 0x28F11, size: 0x8, addend: 0x0, symName: __ZNSt3__117__compressed_pairIPNS_6vectorIP4CellNS_9allocatorIS3_EEEENS4_IS6_EEE6secondB8ue170006Ev, symObjAddr: 0x84F0, symBinAddr: 0x100010B58, symSize: 0x24 }
  - { offsetInCU: 0xFD70, offset: 0x28F35, size: 0x8, addend: 0x0, symName: __ZNSt3__122__compressed_pair_elemINS_9allocatorINS_6vectorIP4CellNS1_IS4_EEEEEELi1ELb1EE5__getB8ue170006Ev, symObjAddr: 0x8514, symBinAddr: 0x100010B7C, symSize: 0x14 }
  - { offsetInCU: 0xFD94, offset: 0x28F59, size: 0x8, addend: 0x0, symName: __ZNKSt3__16vectorINS0_IP4CellNS_9allocatorIS2_EEEENS3_IS5_EEE9__end_capB8ue170006Ev, symObjAddr: 0x8528, symBinAddr: 0x100010B90, symSize: 0x28 }
  - { offsetInCU: 0xFDB8, offset: 0x28F7D, size: 0x8, addend: 0x0, symName: __ZNKSt3__117__compressed_pairIPNS_6vectorIP4CellNS_9allocatorIS3_EEEENS4_IS6_EEE5firstB8ue170006Ev, symObjAddr: 0x8550, symBinAddr: 0x100010BB8, symSize: 0x24 }
  - { offsetInCU: 0xFDDC, offset: 0x28FA1, size: 0x8, addend: 0x0, symName: __ZNKSt3__122__compressed_pair_elemIPNS_6vectorIP4CellNS_9allocatorIS3_EEEELi0ELb0EE5__getB8ue170006Ev, symObjAddr: 0x8574, symBinAddr: 0x100010BDC, symSize: 0x14 }
  - { offsetInCU: 0xFE00, offset: 0x28FC5, size: 0x8, addend: 0x0, symName: __ZNSt3__16vectorIP4CellNS_9allocatorIS2_EEEC2Em, symObjAddr: 0x8588, symBinAddr: 0x100010BF0, symSize: 0x490 }
  - { offsetInCU: 0xFE55, offset: 0x2901A, size: 0x8, addend: 0x0, symName: __ZNSt3__117__compressed_pairIPP4CellNS_9allocatorIS2_EEEC1B8ue170006IDnNS_18__default_init_tagEEEOT_OT0_, symObjAddr: 0x8A18, symBinAddr: 0x100011080, symSize: 0x3C }
  - { offsetInCU: 0xFEAB, offset: 0x29070, size: 0x8, addend: 0x0, symName: __ZNSt3__16vectorIP4CellNS_9allocatorIS2_EEE16__destroy_vectorC1B8ue170006ERS5_, symObjAddr: 0x8CCC, symBinAddr: 0x100011334, symSize: 0x34 }
  - { offsetInCU: 0xFEE2, offset: 0x290A7, size: 0x8, addend: 0x0, symName: __ZNSt3__16vectorIP4CellNS_9allocatorIS2_EEE11__vallocateB8ue170006Em, symObjAddr: 0x8D00, symBinAddr: 0x100011368, symSize: 0x420 }
  - { offsetInCU: 0xFF2A, offset: 0x290EF, size: 0x8, addend: 0x0, symName: __ZNSt3__16vectorIP4CellNS_9allocatorIS2_EEE18__construct_at_endEm, symObjAddr: 0x9120, symBinAddr: 0x100011788, symSize: 0x3E4 }
  - { offsetInCU: 0xFFA4, offset: 0x29169, size: 0x8, addend: 0x0, symName: __ZNSt3__128__exception_guard_exceptionsINS_6vectorIP4CellNS_9allocatorIS3_EEE16__destroy_vectorEE10__completeB8ue170006Ev, symObjAddr: 0x9504, symBinAddr: 0x100011B6C, symSize: 0x8C }
  - { offsetInCU: 0xFFC8, offset: 0x2918D, size: 0x8, addend: 0x0, symName: __ZNSt3__128__exception_guard_exceptionsINS_6vectorIP4CellNS_9allocatorIS3_EEE16__destroy_vectorEED1B8ue170006Ev, symObjAddr: 0x9590, symBinAddr: 0x100011BF8, symSize: 0x2C }
  - { offsetInCU: 0xFFF0, offset: 0x291B5, size: 0x8, addend: 0x0, symName: __ZNSt3__117__compressed_pairIPP4CellNS_9allocatorIS2_EEEC2B8ue170006IDnNS_18__default_init_tagEEEOT_OT0_, symObjAddr: 0x95BC, symBinAddr: 0x100011C24, symSize: 0x40 }
  - { offsetInCU: 0x10046, offset: 0x2920B, size: 0x8, addend: 0x0, symName: __ZNSt3__122__compressed_pair_elemIPP4CellLi0ELb0EEC2B8ue170006IDnvEEOT_, symObjAddr: 0x95FC, symBinAddr: 0x100011C64, symSize: 0x64 }
  - { offsetInCU: 0x10086, offset: 0x2924B, size: 0x8, addend: 0x0, symName: __ZNSt3__122__compressed_pair_elemINS_9allocatorIP4CellEELi1ELb1EEC2B8ue170006ENS_18__default_init_tagE, symObjAddr: 0x9660, symBinAddr: 0x100011CC8, symSize: 0x2C }
  - { offsetInCU: 0x100B8, offset: 0x2927D, size: 0x8, addend: 0x0, symName: __ZNSt3__19allocatorIP4CellEC2B8ue170006Ev, symObjAddr: 0x968C, symBinAddr: 0x100011CF4, symSize: 0x2C }
  - { offsetInCU: 0x100E0, offset: 0x292A5, size: 0x8, addend: 0x0, symName: __ZNSt3__116__non_trivial_ifILb1ENS_9allocatorIP4CellEEEC2B8ue170006Ev, symObjAddr: 0x96B8, symBinAddr: 0x100011D20, symSize: 0x14 }
  - { offsetInCU: 0x10108, offset: 0x292CD, size: 0x8, addend: 0x0, symName: __ZNSt3__128__exception_guard_exceptionsINS_6vectorIP4CellNS_9allocatorIS3_EEE16__destroy_vectorEEC1B8ue170006ES7_, symObjAddr: 0x96CC, symBinAddr: 0x100011D34, symSize: 0x238 }
  - { offsetInCU: 0x10143, offset: 0x29308, size: 0x8, addend: 0x0, symName: __ZNSt3__128__exception_guard_exceptionsINS_6vectorIP4CellNS_9allocatorIS3_EEE16__destroy_vectorEEC2B8ue170006ES7_, symObjAddr: 0x9904, symBinAddr: 0x100011F6C, symSize: 0x264 }
  - { offsetInCU: 0x1017E, offset: 0x29343, size: 0x8, addend: 0x0, symName: __ZNSt3__16vectorIP4CellNS_9allocatorIS2_EEE16__destroy_vectorC2B8ue170006ERS5_, symObjAddr: 0x9B68, symBinAddr: 0x1000121D0, symSize: 0x70 }
  - { offsetInCU: 0x101B5, offset: 0x2937A, size: 0x8, addend: 0x0, symName: __ZNKSt3__16vectorIP4CellNS_9allocatorIS2_EEE8max_sizeEv, symObjAddr: 0x9BD8, symBinAddr: 0x100012240, symSize: 0x2FC }
  - { offsetInCU: 0x101DD, offset: 0x293A2, size: 0x8, addend: 0x0, symName: __ZNKSt3__16vectorIP4CellNS_9allocatorIS2_EEE20__throw_length_errorB8ue170006Ev, symObjAddr: 0x9ED4, symBinAddr: 0x10001253C, symSize: 0x20 }
  - { offsetInCU: 0x10201, offset: 0x293C6, size: 0x8, addend: 0x0, symName: __ZNSt3__16vectorIP4CellNS_9allocatorIS2_EEE7__allocB8ue170006Ev, symObjAddr: 0xA180, symBinAddr: 0x1000127E8, symSize: 0x28 }
  - { offsetInCU: 0x10225, offset: 0x293EA, size: 0x8, addend: 0x0, symName: __ZNSt3__16vectorIP4CellNS_9allocatorIS2_EEE9__end_capB8ue170006Ev, symObjAddr: 0xA1A8, symBinAddr: 0x100012810, symSize: 0x28 }
  - { offsetInCU: 0x10249, offset: 0x2940E, size: 0x8, addend: 0x0, symName: __ZNKSt3__16vectorIP4CellNS_9allocatorIS2_EEE14__annotate_newB8ue170006Em, symObjAddr: 0xA1D0, symBinAddr: 0x100012838, symSize: 0xC0 }
  - { offsetInCU: 0x10286, offset: 0x2944B, size: 0x8, addend: 0x0, symName: __ZNSt3__116allocator_traitsINS_9allocatorIP4CellEEE8max_sizeB8ue170006IS4_vEEmRKS4_, symObjAddr: 0xA2BC, symBinAddr: 0x100012924, symSize: 0x24 }
  - { offsetInCU: 0x102B3, offset: 0x29478, size: 0x8, addend: 0x0, symName: __ZNKSt3__16vectorIP4CellNS_9allocatorIS2_EEE7__allocB8ue170006Ev, symObjAddr: 0xA2E0, symBinAddr: 0x100012948, symSize: 0x28 }
  - { offsetInCU: 0x102D7, offset: 0x2949C, size: 0x8, addend: 0x0, symName: __ZNSt3__114numeric_limitsIlE3maxB8ue170006Ev, symObjAddr: 0xA308, symBinAddr: 0x100012970, symSize: 0x14 }
  - { offsetInCU: 0x102FF, offset: 0x294C4, size: 0x8, addend: 0x0, symName: __ZNKSt3__16__lessIvvEclB8ue170006ImmEEbRKT_RKT0_, symObjAddr: 0xA504, symBinAddr: 0x100012B6C, symSize: 0xBC }
  - { offsetInCU: 0x10351, offset: 0x29516, size: 0x8, addend: 0x0, symName: __ZNKSt3__19allocatorIP4CellE8max_sizeB8ue170006Ev, symObjAddr: 0xA5C0, symBinAddr: 0x100012C28, symSize: 0x14 }
  - { offsetInCU: 0x10375, offset: 0x2953A, size: 0x8, addend: 0x0, symName: __ZNKSt3__117__compressed_pairIPP4CellNS_9allocatorIS2_EEE6secondB8ue170006Ev, symObjAddr: 0xA5D4, symBinAddr: 0x100012C3C, symSize: 0x24 }
  - { offsetInCU: 0x10399, offset: 0x2955E, size: 0x8, addend: 0x0, symName: __ZNKSt3__122__compressed_pair_elemINS_9allocatorIP4CellEELi1ELb1EE5__getB8ue170006Ev, symObjAddr: 0xA5F8, symBinAddr: 0x100012C60, symSize: 0x14 }
  - { offsetInCU: 0x103BD, offset: 0x29582, size: 0x8, addend: 0x0, symName: __ZNSt3__123__libcpp_numeric_limitsIlLb1EE3maxB8ue170006Ev, symObjAddr: 0xA60C, symBinAddr: 0x100012C74, symSize: 0x8 }
  - { offsetInCU: 0x103D1, offset: 0x29596, size: 0x8, addend: 0x0, symName: __ZNSt12length_errorC1B8ue170006EPKc, symObjAddr: 0xA67C, symBinAddr: 0x100012CE4, symSize: 0x34 }
  - { offsetInCU: 0x10407, offset: 0x295CC, size: 0x8, addend: 0x0, symName: __ZNSt12length_errorC2B8ue170006EPKc, symObjAddr: 0xA6B0, symBinAddr: 0x100012D18, symSize: 0x8C }
  - { offsetInCU: 0x1043D, offset: 0x29602, size: 0x8, addend: 0x0, symName: __ZNSt3__19allocatorIP4CellE8allocateB8ue170006Em, symObjAddr: 0xA73C, symBinAddr: 0x100012DA4, symSize: 0x5C }
  - { offsetInCU: 0x1046F, offset: 0x29634, size: 0x8, addend: 0x0, symName: __ZNSt3__117__compressed_pairIPP4CellNS_9allocatorIS2_EEE6secondB8ue170006Ev, symObjAddr: 0xA81C, symBinAddr: 0x100012E84, symSize: 0x24 }
  - { offsetInCU: 0x10493, offset: 0x29658, size: 0x8, addend: 0x0, symName: __ZNSt3__122__compressed_pair_elemINS_9allocatorIP4CellEELi1ELb1EE5__getB8ue170006Ev, symObjAddr: 0xA840, symBinAddr: 0x100012EA8, symSize: 0x14 }
  - { offsetInCU: 0x104B7, offset: 0x2967C, size: 0x8, addend: 0x0, symName: __ZNSt3__117__compressed_pairIPP4CellNS_9allocatorIS2_EEE5firstB8ue170006Ev, symObjAddr: 0xA854, symBinAddr: 0x100012EBC, symSize: 0x24 }
  - { offsetInCU: 0x104DB, offset: 0x296A0, size: 0x8, addend: 0x0, symName: __ZNSt3__122__compressed_pair_elemIPP4CellLi0ELb0EE5__getB8ue170006Ev, symObjAddr: 0xA878, symBinAddr: 0x100012EE0, symSize: 0x14 }
  - { offsetInCU: 0x104FF, offset: 0x296C4, size: 0x8, addend: 0x0, symName: __ZNKSt3__16vectorIP4CellNS_9allocatorIS2_EEE31__annotate_contiguous_containerEPKvS7_S7_S7_, symObjAddr: 0xA88C, symBinAddr: 0x100012EF4, symSize: 0x58 }
  - { offsetInCU: 0x1055F, offset: 0x29724, size: 0x8, addend: 0x0, symName: __ZNKSt3__16vectorIP4CellNS_9allocatorIS2_EEE4dataB8ue170006Ev, symObjAddr: 0xA8E4, symBinAddr: 0x100012F4C, symSize: 0x64 }
  - { offsetInCU: 0x10583, offset: 0x29748, size: 0x8, addend: 0x0, symName: __ZNKSt3__16vectorIP4CellNS_9allocatorIS2_EEE8capacityB8ue170006Ev, symObjAddr: 0xA948, symBinAddr: 0x100012FB0, symSize: 0xBC }
  - { offsetInCU: 0x105A7, offset: 0x2976C, size: 0x8, addend: 0x0, symName: __ZNKSt3__16vectorIP4CellNS_9allocatorIS2_EEE9__end_capB8ue170006Ev, symObjAddr: 0xAA18, symBinAddr: 0x100013080, symSize: 0x28 }
  - { offsetInCU: 0x105CB, offset: 0x29790, size: 0x8, addend: 0x0, symName: __ZNKSt3__117__compressed_pairIPP4CellNS_9allocatorIS2_EEE5firstB8ue170006Ev, symObjAddr: 0xAA40, symBinAddr: 0x1000130A8, symSize: 0x24 }
  - { offsetInCU: 0x105EF, offset: 0x297B4, size: 0x8, addend: 0x0, symName: __ZNKSt3__122__compressed_pair_elemIPP4CellLi0ELb0EE5__getB8ue170006Ev, symObjAddr: 0xAA64, symBinAddr: 0x1000130CC, symSize: 0x14 }
  - { offsetInCU: 0x1062C, offset: 0x297F1, size: 0x8, addend: 0x0, symName: __ZNSt3__16vectorIP4CellNS_9allocatorIS2_EEE21_ConstructTransactionC1B8ue170006ERS5_m, symObjAddr: 0xAA78, symBinAddr: 0x1000130E0, symSize: 0x3C }
  - { offsetInCU: 0x10672, offset: 0x29837, size: 0x8, addend: 0x0, symName: __ZNSt3__116allocator_traitsINS_9allocatorIP4CellEEE9constructB8ue170006IS3_JEvEEvRS4_PT_DpOT0_, symObjAddr: 0xAAB4, symBinAddr: 0x10001311C, symSize: 0x2C }
  - { offsetInCU: 0x106B3, offset: 0x29878, size: 0x8, addend: 0x0, symName: __ZNSt3__16vectorIP4CellNS_9allocatorIS2_EEE21_ConstructTransactionD1B8ue170006Ev, symObjAddr: 0xAAE0, symBinAddr: 0x100013148, symSize: 0x2C }
  - { offsetInCU: 0x106DB, offset: 0x298A0, size: 0x8, addend: 0x0, symName: __ZNSt3__16vectorIP4CellNS_9allocatorIS2_EEE21_ConstructTransactionC2B8ue170006ERS5_m, symObjAddr: 0xAB0C, symBinAddr: 0x100013174, symSize: 0x1D0 }
  - { offsetInCU: 0x10721, offset: 0x298E6, size: 0x8, addend: 0x0, symName: __ZNKSt3__16vectorIP4CellNS_9allocatorIS2_EEE19__annotate_increaseB8ue170006Em, symObjAddr: 0xACDC, symBinAddr: 0x100013344, symSize: 0xD8 }
  - { offsetInCU: 0x10754, offset: 0x29919, size: 0x8, addend: 0x0, symName: __ZNKSt3__16vectorIP4CellNS_9allocatorIS2_EEE4sizeB8ue170006Ev, symObjAddr: 0xADB4, symBinAddr: 0x10001341C, symSize: 0xB0 }
  - { offsetInCU: 0x10778, offset: 0x2993D, size: 0x8, addend: 0x0, symName: __ZNSt3__19allocatorIP4CellE9constructB8ue170006IS2_JEEEvPT_DpOT0_, symObjAddr: 0xAE64, symBinAddr: 0x1000134CC, symSize: 0x64 }
  - { offsetInCU: 0x107B8, offset: 0x2997D, size: 0x8, addend: 0x0, symName: __ZNSt3__16vectorIP4CellNS_9allocatorIS2_EEE21_ConstructTransactionD2B8ue170006Ev, symObjAddr: 0xAEC8, symBinAddr: 0x100013530, symSize: 0x278 }
  - { offsetInCU: 0x107E0, offset: 0x299A5, size: 0x8, addend: 0x0, symName: __ZNKSt3__16vectorIP4CellNS_9allocatorIS2_EEE17__annotate_shrinkB8ue170006Em, symObjAddr: 0xB140, symBinAddr: 0x1000137A8, symSize: 0xC8 }
  - { offsetInCU: 0x10813, offset: 0x299D8, size: 0x8, addend: 0x0, symName: __ZNSt3__128__exception_guard_exceptionsINS_6vectorIP4CellNS_9allocatorIS3_EEE16__destroy_vectorEED2B8ue170006Ev, symObjAddr: 0xB208, symBinAddr: 0x100013870, symSize: 0xBC }
  - { offsetInCU: 0x1083B, offset: 0x29A00, size: 0x8, addend: 0x0, symName: __ZNSt3__16vectorIP4CellNS_9allocatorIS2_EEE16__destroy_vectorclB8ue170006Ev, symObjAddr: 0xB2C4, symBinAddr: 0x10001392C, symSize: 0x228 }
  - { offsetInCU: 0x1085F, offset: 0x29A24, size: 0x8, addend: 0x0, symName: __ZNSt3__16vectorIP4CellNS_9allocatorIS2_EEE7__clearB8ue170006Ev, symObjAddr: 0xB4EC, symBinAddr: 0x100013B54, symSize: 0x64 }
  - { offsetInCU: 0x10883, offset: 0x29A48, size: 0x8, addend: 0x0, symName: __ZNKSt3__16vectorIP4CellNS_9allocatorIS2_EEE17__annotate_deleteB8ue170006Ev, symObjAddr: 0xB550, symBinAddr: 0x100013BB8, symSize: 0xCC }
  - { offsetInCU: 0x108A7, offset: 0x29A6C, size: 0x8, addend: 0x0, symName: __ZNSt3__116allocator_traitsINS_9allocatorIP4CellEEE10deallocateB8ue170006ERS4_PS3_m, symObjAddr: 0xB61C, symBinAddr: 0x100013C84, symSize: 0x34 }
  - { offsetInCU: 0x108E8, offset: 0x29AAD, size: 0x8, addend: 0x0, symName: __ZNSt3__16vectorIP4CellNS_9allocatorIS2_EEE22__base_destruct_at_endB8ue170006EPS2_, symObjAddr: 0xB650, symBinAddr: 0x100013CB8, symSize: 0x114 }
  - { offsetInCU: 0x1092A, offset: 0x29AEF, size: 0x8, addend: 0x0, symName: __ZNSt3__116allocator_traitsINS_9allocatorIP4CellEEE7destroyB8ue170006IS3_vEEvRS4_PT_, symObjAddr: 0xB764, symBinAddr: 0x100013DCC, symSize: 0x2C }
  - { offsetInCU: 0x10966, offset: 0x29B2B, size: 0x8, addend: 0x0, symName: __ZNSt3__19allocatorIP4CellE7destroyB8ue170006EPS2_, symObjAddr: 0xB790, symBinAddr: 0x100013DF8, symSize: 0x14 }
  - { offsetInCU: 0x10998, offset: 0x29B5D, size: 0x8, addend: 0x0, symName: __ZNSt3__19allocatorIP4CellE10deallocateB8ue170006EPS2_m, symObjAddr: 0xB7A4, symBinAddr: 0x100013E0C, symSize: 0x4C }
  - { offsetInCU: 0x109D8, offset: 0x29B9D, size: 0x8, addend: 0x0, symName: __ZNSt3__16vectorIP4CellNS_9allocatorIS2_EEED2B8ue170006Ev, symObjAddr: 0xB7F0, symBinAddr: 0x100013E58, symSize: 0x1F4 }
  - { offsetInCU: 0x10A01, offset: 0x29BC6, size: 0x8, addend: 0x0, symName: __ZNSt3__16vectorINS0_IP4CellNS_9allocatorIS2_EEEENS3_IS5_EEEC2EmRKS5_, symObjAddr: 0xB9E4, symBinAddr: 0x10001404C, symSize: 0x498 }
  - { offsetInCU: 0x10A66, offset: 0x29C2B, size: 0x8, addend: 0x0, symName: __ZNSt3__16vectorINS0_IP4CellNS_9allocatorIS2_EEEENS3_IS5_EEE11__vallocateB8ue170006Em, symObjAddr: 0xC0F4, symBinAddr: 0x10001475C, symSize: 0x428 }
  - { offsetInCU: 0x10AAE, offset: 0x29C73, size: 0x8, addend: 0x0, symName: __ZNSt3__16vectorINS0_IP4CellNS_9allocatorIS2_EEEENS3_IS5_EEE18__construct_at_endEmRKS5_, symObjAddr: 0xC51C, symBinAddr: 0x100014B84, symSize: 0x3EC }
  - { offsetInCU: 0x10B38, offset: 0x29CFD, size: 0x8, addend: 0x0, symName: __ZNSt3__128__exception_guard_exceptionsINS_6vectorINS1_IP4CellNS_9allocatorIS3_EEEENS4_IS6_EEE16__destroy_vectorEE10__completeB8ue170006Ev, symObjAddr: 0xC908, symBinAddr: 0x100014F70, symSize: 0x8C }
  - { offsetInCU: 0x10B5C, offset: 0x29D21, size: 0x8, addend: 0x0, symName: __ZNSt3__128__exception_guard_exceptionsINS_6vectorINS1_IP4CellNS_9allocatorIS3_EEEENS4_IS6_EEE16__destroy_vectorEED1B8ue170006Ev, symObjAddr: 0xC994, symBinAddr: 0x100014FFC, symSize: 0x2C }
  - { offsetInCU: 0x10B84, offset: 0x29D49, size: 0x8, addend: 0x0, symName: __ZNSt3__128__exception_guard_exceptionsINS_6vectorINS1_IP4CellNS_9allocatorIS3_EEEENS4_IS6_EEE16__destroy_vectorEEC1B8ue170006ES9_, symObjAddr: 0xC9C0, symBinAddr: 0x100015028, symSize: 0x238 }
  - { offsetInCU: 0x10BBF, offset: 0x29D84, size: 0x8, addend: 0x0, symName: __ZNSt3__128__exception_guard_exceptionsINS_6vectorINS1_IP4CellNS_9allocatorIS3_EEEENS4_IS6_EEE16__destroy_vectorEEC2B8ue170006ES9_, symObjAddr: 0xCBF8, symBinAddr: 0x100015260, symSize: 0x264 }
  - { offsetInCU: 0x10BFA, offset: 0x29DBF, size: 0x8, addend: 0x0, symName: __ZNKSt3__16vectorINS0_IP4CellNS_9allocatorIS2_EEEENS3_IS5_EEE8max_sizeEv, symObjAddr: 0xCE5C, symBinAddr: 0x1000154C4, symSize: 0x2FC }
  - { offsetInCU: 0x10C22, offset: 0x29DE7, size: 0x8, addend: 0x0, symName: __ZNKSt3__16vectorINS0_IP4CellNS_9allocatorIS2_EEEENS3_IS5_EEE20__throw_length_errorB8ue170006Ev, symObjAddr: 0xD158, symBinAddr: 0x1000157C0, symSize: 0x20 }
  - { offsetInCU: 0x10C46, offset: 0x29E0B, size: 0x8, addend: 0x0, symName: __ZNSt3__16vectorINS0_IP4CellNS_9allocatorIS2_EEEENS3_IS5_EEE9__end_capB8ue170006Ev, symObjAddr: 0xD404, symBinAddr: 0x100015A6C, symSize: 0x28 }
  - { offsetInCU: 0x10C6A, offset: 0x29E2F, size: 0x8, addend: 0x0, symName: __ZNKSt3__16vectorINS0_IP4CellNS_9allocatorIS2_EEEENS3_IS5_EEE14__annotate_newB8ue170006Em, symObjAddr: 0xD42C, symBinAddr: 0x100015A94, symSize: 0xDC }
  - { offsetInCU: 0x10CA7, offset: 0x29E6C, size: 0x8, addend: 0x0, symName: __ZNSt3__116allocator_traitsINS_9allocatorINS_6vectorIP4CellNS1_IS4_EEEEEEE8max_sizeB8ue170006IS7_vEEmRKS7_, symObjAddr: 0xD508, symBinAddr: 0x100015B70, symSize: 0x24 }
  - { offsetInCU: 0x10CD4, offset: 0x29E99, size: 0x8, addend: 0x0, symName: __ZNKSt3__16vectorINS0_IP4CellNS_9allocatorIS2_EEEENS3_IS5_EEE7__allocB8ue170006Ev, symObjAddr: 0xD52C, symBinAddr: 0x100015B94, symSize: 0x28 }
  - { offsetInCU: 0x10CF8, offset: 0x29EBD, size: 0x8, addend: 0x0, symName: __ZNKSt3__19allocatorINS_6vectorIP4CellNS0_IS3_EEEEE8max_sizeB8ue170006Ev, symObjAddr: 0xD554, symBinAddr: 0x100015BBC, symSize: 0x18 }
  - { offsetInCU: 0x10D1C, offset: 0x29EE1, size: 0x8, addend: 0x0, symName: __ZNKSt3__117__compressed_pairIPNS_6vectorIP4CellNS_9allocatorIS3_EEEENS4_IS6_EEE6secondB8ue170006Ev, symObjAddr: 0xD56C, symBinAddr: 0x100015BD4, symSize: 0x24 }
  - { offsetInCU: 0x10D40, offset: 0x29F05, size: 0x8, addend: 0x0, symName: __ZNKSt3__122__compressed_pair_elemINS_9allocatorINS_6vectorIP4CellNS1_IS4_EEEEEELi1ELb1EE5__getB8ue170006Ev, symObjAddr: 0xD590, symBinAddr: 0x100015BF8, symSize: 0x14 }
  - { offsetInCU: 0x10D64, offset: 0x29F29, size: 0x8, addend: 0x0, symName: __ZNSt3__19allocatorINS_6vectorIP4CellNS0_IS3_EEEEE8allocateB8ue170006Em, symObjAddr: 0xD5A4, symBinAddr: 0x100015C0C, symSize: 0x60 }
  - { offsetInCU: 0x10D96, offset: 0x29F5B, size: 0x8, addend: 0x0, symName: __ZNSt3__117__compressed_pairIPNS_6vectorIP4CellNS_9allocatorIS3_EEEENS4_IS6_EEE5firstB8ue170006Ev, symObjAddr: 0xD604, symBinAddr: 0x100015C6C, symSize: 0x24 }
  - { offsetInCU: 0x10DBA, offset: 0x29F7F, size: 0x8, addend: 0x0, symName: __ZNSt3__122__compressed_pair_elemIPNS_6vectorIP4CellNS_9allocatorIS3_EEEELi0ELb0EE5__getB8ue170006Ev, symObjAddr: 0xD628, symBinAddr: 0x100015C90, symSize: 0x14 }
  - { offsetInCU: 0x10DF7, offset: 0x29FBC, size: 0x8, addend: 0x0, symName: __ZNSt3__16vectorINS0_IP4CellNS_9allocatorIS2_EEEENS3_IS5_EEE21_ConstructTransactionC1B8ue170006ERS7_m, symObjAddr: 0xD63C, symBinAddr: 0x100015CA4, symSize: 0x3C }
  - { offsetInCU: 0x10E3D, offset: 0x2A002, size: 0x8, addend: 0x0, symName: __ZNSt3__116allocator_traitsINS_9allocatorINS_6vectorIP4CellNS1_IS4_EEEEEEE9constructB8ue170006IS6_JRKS6_EvEEvRS7_PT_DpOT0_, symObjAddr: 0xD678, symBinAddr: 0x100015CE0, symSize: 0x34 }
  - { offsetInCU: 0x10E93, offset: 0x2A058, size: 0x8, addend: 0x0, symName: __ZNSt3__16vectorINS0_IP4CellNS_9allocatorIS2_EEEENS3_IS5_EEE21_ConstructTransactionD1B8ue170006Ev, symObjAddr: 0xD6AC, symBinAddr: 0x100015D14, symSize: 0x2C }
  - { offsetInCU: 0x10EBB, offset: 0x2A080, size: 0x8, addend: 0x0, symName: __ZNSt3__16vectorINS0_IP4CellNS_9allocatorIS2_EEEENS3_IS5_EEE21_ConstructTransactionC2B8ue170006ERS7_m, symObjAddr: 0xD6D8, symBinAddr: 0x100015D40, symSize: 0x1D8 }
  - { offsetInCU: 0x10F01, offset: 0x2A0C6, size: 0x8, addend: 0x0, symName: __ZNKSt3__16vectorINS0_IP4CellNS_9allocatorIS2_EEEENS3_IS5_EEE19__annotate_increaseB8ue170006Em, symObjAddr: 0xD8B0, symBinAddr: 0x100015F18, symSize: 0xF8 }
  - { offsetInCU: 0x10F34, offset: 0x2A0F9, size: 0x8, addend: 0x0, symName: __ZNSt3__19allocatorINS_6vectorIP4CellNS0_IS3_EEEEE9constructB8ue170006IS5_JRKS5_EEEvPT_DpOT0_, symObjAddr: 0xD9A8, symBinAddr: 0x100016010, symSize: 0x30 }
  - { offsetInCU: 0x10F88, offset: 0x2A14D, size: 0x8, addend: 0x0, symName: __ZNSt3__16vectorIP4CellNS_9allocatorIS2_EEEC1ERKS5_, symObjAddr: 0xD9D8, symBinAddr: 0x100016040, symSize: 0x34 }
  - { offsetInCU: 0x10FC2, offset: 0x2A187, size: 0x8, addend: 0x0, symName: __ZNSt3__16vectorIP4CellNS_9allocatorIS2_EEEC2ERKS5_, symObjAddr: 0xDA0C, symBinAddr: 0x100016074, symSize: 0x388 }
  - { offsetInCU: 0x10FFE, offset: 0x2A1C3, size: 0x8, addend: 0x0, symName: __ZNSt3__116allocator_traitsINS_9allocatorIP4CellEEE37select_on_container_copy_constructionB8ue170006IS4_vvEES4_RKS4_, symObjAddr: 0xDD94, symBinAddr: 0x1000163FC, symSize: 0x10 }
  - { offsetInCU: 0x11031, offset: 0x2A1F6, size: 0x8, addend: 0x0, symName: __ZNSt3__117__compressed_pairIPP4CellNS_9allocatorIS2_EEEC1B8ue170006IDnS5_EEOT_OT0_, symObjAddr: 0xDDA4, symBinAddr: 0x10001640C, symSize: 0x3C }
  - { offsetInCU: 0x11087, offset: 0x2A24C, size: 0x8, addend: 0x0, symName: __ZNSt3__16vectorIP4CellNS_9allocatorIS2_EEE16__init_with_sizeB8ue170006IPS2_S7_EEvT_T0_m, symObjAddr: 0xDDE0, symBinAddr: 0x100016448, symSize: 0x35C }
  - { offsetInCU: 0x11101, offset: 0x2A2C6, size: 0x8, addend: 0x0, symName: __ZNSt3__117__compressed_pairIPP4CellNS_9allocatorIS2_EEEC2B8ue170006IDnS5_EEOT_OT0_, symObjAddr: 0xE13C, symBinAddr: 0x1000167A4, symSize: 0x44 }
  - { offsetInCU: 0x11157, offset: 0x2A31C, size: 0x8, addend: 0x0, symName: __ZNSt3__122__compressed_pair_elemINS_9allocatorIP4CellEELi1ELb1EEC2B8ue170006IS4_vEEOT_, symObjAddr: 0xE180, symBinAddr: 0x1000167E8, symSize: 0x18 }
  - { offsetInCU: 0x11197, offset: 0x2A35C, size: 0x8, addend: 0x0, symName: __ZNSt3__16vectorIP4CellNS_9allocatorIS2_EEE18__construct_at_endIPS2_S7_EEvT_T0_m, symObjAddr: 0xE198, symBinAddr: 0x100016800, symSize: 0x380 }
  - { offsetInCU: 0x11232, offset: 0x2A3F7, size: 0x8, addend: 0x0, symName: __ZNSt3__14pairIPP4CellS3_EC1B8ue170006IS3_S3_LPv0EEEOT_OT0_, symObjAddr: 0xEDF4, symBinAddr: 0x10001745C, symSize: 0x3C }
  - { offsetInCU: 0x1128F, offset: 0x2A454, size: 0x8, addend: 0x0, symName: __ZNSt3__14pairIPP4CellS3_EC2B8ue170006IS3_S3_LPv0EEEOT_OT0_, symObjAddr: 0xEE30, symBinAddr: 0x100017498, symSize: 0x138 }
  - { offsetInCU: 0x112F6, offset: 0x2A4BB, size: 0x8, addend: 0x0, symName: __ZNKSt3__114__copy_trivialclB8ue170006IP4CellS3_Li0EEENS_4pairIPT_PT0_EES6_S6_S8_, symObjAddr: 0xFBD0, symBinAddr: 0x100018238, symSize: 0x230 }
  - { offsetInCU: 0x11360, offset: 0x2A525, size: 0x8, addend: 0x0, symName: __ZNSt3__14pairIPP4CellS3_EC1B8ue170006IRS3_S3_LPv0EEEOT_OT0_, symObjAddr: 0x10450, symBinAddr: 0x100018AB8, symSize: 0x3C }
  - { offsetInCU: 0x113BD, offset: 0x2A582, size: 0x8, addend: 0x0, symName: __ZNSt3__14pairIPP4CellS3_EC2B8ue170006IRS3_S3_LPv0EEEOT_OT0_, symObjAddr: 0x1048C, symBinAddr: 0x100018AF4, symSize: 0x138 }
  - { offsetInCU: 0x1141A, offset: 0x2A5DF, size: 0x8, addend: 0x0, symName: __ZNSt3__118__unwrap_iter_implIPP4CellLb1EE8__unwrapB8ue170006ES3_, symObjAddr: 0x105C4, symBinAddr: 0x100018C2C, symSize: 0x24 }
  - { offsetInCU: 0x1143C, offset: 0x2A601, size: 0x8, addend: 0x0, symName: __ZNSt3__118__unwrap_iter_implIPP4CellLb1EE8__rewrapB8ue170006ES3_S3_, symObjAddr: 0x105E8, symBinAddr: 0x100018C50, symSize: 0x50 }
  - { offsetInCU: 0x1146C, offset: 0x2A631, size: 0x8, addend: 0x0, symName: __ZNSt3__16vectorINS0_IP4CellNS_9allocatorIS2_EEEENS3_IS5_EEE21_ConstructTransactionD2B8ue170006Ev, symObjAddr: 0x10638, symBinAddr: 0x100018CA0, symSize: 0x278 }
  - { offsetInCU: 0x11494, offset: 0x2A659, size: 0x8, addend: 0x0, symName: __ZNKSt3__16vectorINS0_IP4CellNS_9allocatorIS2_EEEENS3_IS5_EEE17__annotate_shrinkB8ue170006Em, symObjAddr: 0x108B0, symBinAddr: 0x100018F18, symSize: 0xE4 }
  - { offsetInCU: 0x114C7, offset: 0x2A68C, size: 0x8, addend: 0x0, symName: __ZNSt3__128__exception_guard_exceptionsINS_6vectorINS1_IP4CellNS_9allocatorIS3_EEEENS4_IS6_EEE16__destroy_vectorEED2B8ue170006Ev, symObjAddr: 0x10994, symBinAddr: 0x100018FFC, symSize: 0xA8 }
  - { offsetInCU: 0x114EF, offset: 0x2A6B4, size: 0x8, addend: 0x0, symName: __ZNSt3__16vectorINS0_IP4CellNS_9allocatorIS2_EEEENS3_IS5_EEE13__move_assignERS7_NS_17integral_constantIbLb1EEE, symObjAddr: 0x10A3C, symBinAddr: 0x1000190A4, symSize: 0x28C }
  - { offsetInCU: 0x11531, offset: 0x2A6F6, size: 0x8, addend: 0x0, symName: __ZNSt3__16vectorINS0_IP4CellNS_9allocatorIS2_EEEENS3_IS5_EEE13__vdeallocateEv, symObjAddr: 0x10CC8, symBinAddr: 0x100019330, symSize: 0x194 }
  - { offsetInCU: 0x11558, offset: 0x2A71D, size: 0x8, addend: 0x0, symName: __ZNSt3__16vectorINS0_IP4CellNS_9allocatorIS2_EEEENS3_IS5_EEE19__move_assign_allocB8ue170006ERS7_, symObjAddr: 0x10E5C, symBinAddr: 0x1000194C4, symSize: 0x2C }
  - { offsetInCU: 0x1158B, offset: 0x2A750, size: 0x8, addend: 0x0, symName: __ZNSt3__16vectorINS0_IP4CellNS_9allocatorIS2_EEEENS3_IS5_EEE5clearB8ue170006Ev, symObjAddr: 0x10E88, symBinAddr: 0x1000194F0, symSize: 0x44 }
  - { offsetInCU: 0x115BE, offset: 0x2A783, size: 0x8, addend: 0x0, symName: __ZNSt3__16vectorINS0_IP4CellNS_9allocatorIS2_EEEENS3_IS5_EEE19__move_assign_allocB8ue170006ERS7_NS_17integral_constantIbLb1EEE, symObjAddr: 0x10ECC, symBinAddr: 0x100019534, symSize: 0x38 }
  - { offsetInCU: 0x1161B, offset: 0x2A7E0, size: 0x8, addend: 0x0, symName: __ZNKSt3__113basic_ostreamIcNS_11char_traitsIcEEE6sentrycvbB8ue170006Ev, symObjAddr: 0x11688, symBinAddr: 0x100019CB0, symSize: 0x88 }
  - { offsetInCU: 0x1163F, offset: 0x2A804, size: 0x8, addend: 0x0, symName: __ZNSt3__119ostreambuf_iteratorIcNS_11char_traitsIcEEEC1B8ue170006ERNS_13basic_ostreamIcS2_EE, symObjAddr: 0x11E70, symBinAddr: 0x10001A498, symSize: 0x34 }
  - { offsetInCU: 0x11675, offset: 0x2A83A, size: 0x8, addend: 0x0, symName: __ZNKSt3__18ios_base5flagsB8ue170006Ev, symObjAddr: 0x11EA4, symBinAddr: 0x10001A4CC, symSize: 0x8C }
  - { offsetInCU: 0x1169C, offset: 0x2A861, size: 0x8, addend: 0x0, symName: __ZNKSt3__19basic_iosIcNS_11char_traitsIcEEE4fillB8ue170006Ev, symObjAddr: 0x11F30, symBinAddr: 0x10001A558, symSize: 0x198 }
  - { offsetInCU: 0x116C3, offset: 0x2A888, size: 0x8, addend: 0x0, symName: __ZNKSt3__119ostreambuf_iteratorIcNS_11char_traitsIcEEE6failedB8ue170006Ev, symObjAddr: 0x120C8, symBinAddr: 0x10001A6F0, symSize: 0x6C }
  - { offsetInCU: 0x116E7, offset: 0x2A8AC, size: 0x8, addend: 0x0, symName: __ZNSt3__19basic_iosIcNS_11char_traitsIcEEE8setstateB8ue170006Ej, symObjAddr: 0x12134, symBinAddr: 0x10001A75C, symSize: 0x2C }
  - { offsetInCU: 0x1171A, offset: 0x2A8DF, size: 0x8, addend: 0x0, symName: __ZNKSt3__18ios_base5widthB8ue170006Ev, symObjAddr: 0x12160, symBinAddr: 0x10001A788, symSize: 0x64 }
  - { offsetInCU: 0x11741, offset: 0x2A906, size: 0x8, addend: 0x0, symName: __ZNSt3__115basic_streambufIcNS_11char_traitsIcEEE5sputnB8ue170006EPKcl, symObjAddr: 0x121C4, symBinAddr: 0x10001A7EC, symSize: 0xC8 }
  - { offsetInCU: 0x11781, offset: 0x2A946, size: 0x8, addend: 0x0, symName: __ZNSt3__112basic_stringIcNS_11char_traitsIcEENS_9allocatorIcEEEC1B8ue170006Emc, symObjAddr: 0x1228C, symBinAddr: 0x10001A8B4, symSize: 0x3C }
  - { offsetInCU: 0x117C7, offset: 0x2A98C, size: 0x8, addend: 0x0, symName: __ZNSt3__18ios_base5widthB8ue170006El, symObjAddr: 0x122F0, symBinAddr: 0x10001A8F0, symSize: 0xB8 }
  - { offsetInCU: 0x1180C, offset: 0x2A9D1, size: 0x8, addend: 0x0, symName: __ZNSt3__112basic_stringIcNS_11char_traitsIcEENS_9allocatorIcEEEC2B8ue170006Emc, symObjAddr: 0x123A8, symBinAddr: 0x10001A9A8, symSize: 0x204 }
  - { offsetInCU: 0x11855, offset: 0x2AA1A, size: 0x8, addend: 0x0, symName: __ZNSt3__119ostreambuf_iteratorIcNS_11char_traitsIcEEEC2B8ue170006ERNS_13basic_ostreamIcS2_EE, symObjAddr: 0x12890, symBinAddr: 0x10001ABAC, symSize: 0x10C }
  - { offsetInCU: 0x1188B, offset: 0x2AA50, size: 0x8, addend: 0x0, symName: __ZNKSt3__19basic_iosIcNS_11char_traitsIcEEE5rdbufB8ue170006Ev, symObjAddr: 0x1299C, symBinAddr: 0x10001ACB8, symSize: 0x24 }
  - { offsetInCU: 0x118B2, offset: 0x2AA77, size: 0x8, addend: 0x0, symName: __ZNKSt3__18ios_base5rdbufB8ue170006Ev, symObjAddr: 0x129C0, symBinAddr: 0x10001ACDC, symSize: 0x64 }
  - { offsetInCU: 0x118D6, offset: 0x2AA9B, size: 0x8, addend: 0x0, symName: __ZNSt3__111char_traitsIcE11eq_int_typeB8ue170006Eii, symObjAddr: 0x12A24, symBinAddr: 0x10001AD40, symSize: 0x28 }
  - { offsetInCU: 0x11908, offset: 0x2AACD, size: 0x8, addend: 0x0, symName: __ZNSt3__111char_traitsIcE3eofB8ue170006Ev, symObjAddr: 0x12A4C, symBinAddr: 0x10001AD68, symSize: 0x8 }
  - { offsetInCU: 0x1191C, offset: 0x2AAE1, size: 0x8, addend: 0x0, symName: __ZNKSt3__19basic_iosIcNS_11char_traitsIcEEE5widenB8ue170006Ec, symObjAddr: 0x12A54, symBinAddr: 0x10001AD70, symSize: 0x2A4 }
  - { offsetInCU: 0x11986, offset: 0x2AB4B, size: 0x8, addend: 0x0, symName: __ZNKSt3__15ctypeIcE5widenB8ue170006Ec, symObjAddr: 0x12D24, symBinAddr: 0x10001B040, symSize: 0xBC }
  - { offsetInCU: 0x119B9, offset: 0x2AB7E, size: 0x8, addend: 0x0, symName: __ZNSt3__18ios_base8setstateB8ue170006Ej, symObjAddr: 0x12DE0, symBinAddr: 0x10001B0FC, symSize: 0x9C }
  - { offsetInCU: 0x119EF, offset: 0x2ABB4, size: 0x8, addend: 0x0, symName: __ZNSt3__16vectorIiNS_9allocatorIiEEEC2EmRKi, symObjAddr: 0x13004, symBinAddr: 0x10001B198, symSize: 0x498 }
  - { offsetInCU: 0x11A54, offset: 0x2AC19, size: 0x8, addend: 0x0, symName: __ZNSt3__117__compressed_pairIPiNS_9allocatorIiEEEC1B8ue170006IDnNS_18__default_init_tagEEEOT_OT0_, symObjAddr: 0x1349C, symBinAddr: 0x10001B630, symSize: 0x3C }
  - { offsetInCU: 0x11AAA, offset: 0x2AC6F, size: 0x8, addend: 0x0, symName: __ZNSt3__16vectorIiNS_9allocatorIiEEE16__destroy_vectorC1B8ue170006ERS3_, symObjAddr: 0x13750, symBinAddr: 0x10001B8E4, symSize: 0x34 }
  - { offsetInCU: 0x11AE1, offset: 0x2ACA6, size: 0x8, addend: 0x0, symName: __ZNSt3__16vectorIiNS_9allocatorIiEEE11__vallocateB8ue170006Em, symObjAddr: 0x13784, symBinAddr: 0x10001B918, symSize: 0x420 }
  - { offsetInCU: 0x11B29, offset: 0x2ACEE, size: 0x8, addend: 0x0, symName: __ZNSt3__16vectorIiNS_9allocatorIiEEE18__construct_at_endEmRKi, symObjAddr: 0x13BA4, symBinAddr: 0x10001BD38, symSize: 0x3EC }
  - { offsetInCU: 0x11BB3, offset: 0x2AD78, size: 0x8, addend: 0x0, symName: __ZNSt3__128__exception_guard_exceptionsINS_6vectorIiNS_9allocatorIiEEE16__destroy_vectorEE10__completeB8ue170006Ev, symObjAddr: 0x13F90, symBinAddr: 0x10001C124, symSize: 0x8C }
  - { offsetInCU: 0x11BD7, offset: 0x2AD9C, size: 0x8, addend: 0x0, symName: __ZNSt3__128__exception_guard_exceptionsINS_6vectorIiNS_9allocatorIiEEE16__destroy_vectorEED1B8ue170006Ev, symObjAddr: 0x1401C, symBinAddr: 0x10001C1B0, symSize: 0x2C }
  - { offsetInCU: 0x11BFF, offset: 0x2ADC4, size: 0x8, addend: 0x0, symName: __ZNSt3__117__compressed_pairIPiNS_9allocatorIiEEEC2B8ue170006IDnNS_18__default_init_tagEEEOT_OT0_, symObjAddr: 0x14048, symBinAddr: 0x10001C1DC, symSize: 0x40 }
  - { offsetInCU: 0x11C55, offset: 0x2AE1A, size: 0x8, addend: 0x0, symName: __ZNSt3__122__compressed_pair_elemIPiLi0ELb0EEC2B8ue170006IDnvEEOT_, symObjAddr: 0x14088, symBinAddr: 0x10001C21C, symSize: 0x64 }
  - { offsetInCU: 0x11C95, offset: 0x2AE5A, size: 0x8, addend: 0x0, symName: __ZNSt3__122__compressed_pair_elemINS_9allocatorIiEELi1ELb1EEC2B8ue170006ENS_18__default_init_tagE, symObjAddr: 0x140EC, symBinAddr: 0x10001C280, symSize: 0x2C }
  - { offsetInCU: 0x11CC7, offset: 0x2AE8C, size: 0x8, addend: 0x0, symName: __ZNSt3__19allocatorIiEC2B8ue170006Ev, symObjAddr: 0x14118, symBinAddr: 0x10001C2AC, symSize: 0x2C }
  - { offsetInCU: 0x11CEF, offset: 0x2AEB4, size: 0x8, addend: 0x0, symName: __ZNSt3__116__non_trivial_ifILb1ENS_9allocatorIiEEEC2B8ue170006Ev, symObjAddr: 0x14144, symBinAddr: 0x10001C2D8, symSize: 0x14 }
  - { offsetInCU: 0x11D17, offset: 0x2AEDC, size: 0x8, addend: 0x0, symName: __ZNSt3__128__exception_guard_exceptionsINS_6vectorIiNS_9allocatorIiEEE16__destroy_vectorEEC1B8ue170006ES5_, symObjAddr: 0x14158, symBinAddr: 0x10001C2EC, symSize: 0x238 }
  - { offsetInCU: 0x11D52, offset: 0x2AF17, size: 0x8, addend: 0x0, symName: __ZNSt3__128__exception_guard_exceptionsINS_6vectorIiNS_9allocatorIiEEE16__destroy_vectorEEC2B8ue170006ES5_, symObjAddr: 0x14390, symBinAddr: 0x10001C524, symSize: 0x264 }
  - { offsetInCU: 0x11D8D, offset: 0x2AF52, size: 0x8, addend: 0x0, symName: __ZNSt3__16vectorIiNS_9allocatorIiEEE16__destroy_vectorC2B8ue170006ERS3_, symObjAddr: 0x145F4, symBinAddr: 0x10001C788, symSize: 0x70 }
  - { offsetInCU: 0x11DC4, offset: 0x2AF89, size: 0x8, addend: 0x0, symName: __ZNKSt3__16vectorIiNS_9allocatorIiEEE8max_sizeEv, symObjAddr: 0x14664, symBinAddr: 0x10001C7F8, symSize: 0x2FC }
  - { offsetInCU: 0x11DEC, offset: 0x2AFB1, size: 0x8, addend: 0x0, symName: __ZNKSt3__16vectorIiNS_9allocatorIiEEE20__throw_length_errorB8ue170006Ev, symObjAddr: 0x14960, symBinAddr: 0x10001CAF4, symSize: 0x20 }
  - { offsetInCU: 0x11E10, offset: 0x2AFD5, size: 0x8, addend: 0x0, symName: __ZNSt3__16vectorIiNS_9allocatorIiEEE7__allocB8ue170006Ev, symObjAddr: 0x14C0C, symBinAddr: 0x10001CDA0, symSize: 0x28 }
  - { offsetInCU: 0x11E34, offset: 0x2AFF9, size: 0x8, addend: 0x0, symName: __ZNSt3__16vectorIiNS_9allocatorIiEEE9__end_capB8ue170006Ev, symObjAddr: 0x14C34, symBinAddr: 0x10001CDC8, symSize: 0x28 }
  - { offsetInCU: 0x11E58, offset: 0x2B01D, size: 0x8, addend: 0x0, symName: __ZNKSt3__16vectorIiNS_9allocatorIiEEE14__annotate_newB8ue170006Em, symObjAddr: 0x14C5C, symBinAddr: 0x10001CDF0, symSize: 0xC0 }
  - { offsetInCU: 0x11E95, offset: 0x2B05A, size: 0x8, addend: 0x0, symName: __ZNSt3__116allocator_traitsINS_9allocatorIiEEE8max_sizeB8ue170006IS2_vEEmRKS2_, symObjAddr: 0x14D1C, symBinAddr: 0x10001CEB0, symSize: 0x24 }
  - { offsetInCU: 0x11EC2, offset: 0x2B087, size: 0x8, addend: 0x0, symName: __ZNKSt3__16vectorIiNS_9allocatorIiEEE7__allocB8ue170006Ev, symObjAddr: 0x14D40, symBinAddr: 0x10001CED4, symSize: 0x28 }
  - { offsetInCU: 0x11EE6, offset: 0x2B0AB, size: 0x8, addend: 0x0, symName: __ZNKSt3__19allocatorIiE8max_sizeB8ue170006Ev, symObjAddr: 0x14D68, symBinAddr: 0x10001CEFC, symSize: 0x14 }
  - { offsetInCU: 0x11F0A, offset: 0x2B0CF, size: 0x8, addend: 0x0, symName: __ZNKSt3__117__compressed_pairIPiNS_9allocatorIiEEE6secondB8ue170006Ev, symObjAddr: 0x14D7C, symBinAddr: 0x10001CF10, symSize: 0x24 }
  - { offsetInCU: 0x11F2E, offset: 0x2B0F3, size: 0x8, addend: 0x0, symName: __ZNKSt3__122__compressed_pair_elemINS_9allocatorIiEELi1ELb1EE5__getB8ue170006Ev, symObjAddr: 0x14DA0, symBinAddr: 0x10001CF34, symSize: 0x14 }
  - { offsetInCU: 0x11F52, offset: 0x2B117, size: 0x8, addend: 0x0, symName: __ZNSt3__19allocatorIiE8allocateB8ue170006Em, symObjAddr: 0x14DB4, symBinAddr: 0x10001CF48, symSize: 0x5C }
  - { offsetInCU: 0x11F84, offset: 0x2B149, size: 0x8, addend: 0x0, symName: __ZNSt3__117__compressed_pairIPiNS_9allocatorIiEEE6secondB8ue170006Ev, symObjAddr: 0x14E10, symBinAddr: 0x10001CFA4, symSize: 0x24 }
  - { offsetInCU: 0x11FA8, offset: 0x2B16D, size: 0x8, addend: 0x0, symName: __ZNSt3__122__compressed_pair_elemINS_9allocatorIiEELi1ELb1EE5__getB8ue170006Ev, symObjAddr: 0x14E34, symBinAddr: 0x10001CFC8, symSize: 0x14 }
  - { offsetInCU: 0x11FCC, offset: 0x2B191, size: 0x8, addend: 0x0, symName: __ZNSt3__117__compressed_pairIPiNS_9allocatorIiEEE5firstB8ue170006Ev, symObjAddr: 0x14E48, symBinAddr: 0x10001CFDC, symSize: 0x24 }
  - { offsetInCU: 0x11FF0, offset: 0x2B1B5, size: 0x8, addend: 0x0, symName: __ZNSt3__122__compressed_pair_elemIPiLi0ELb0EE5__getB8ue170006Ev, symObjAddr: 0x14E6C, symBinAddr: 0x10001D000, symSize: 0x14 }
  - { offsetInCU: 0x12014, offset: 0x2B1D9, size: 0x8, addend: 0x0, symName: __ZNKSt3__16vectorIiNS_9allocatorIiEEE31__annotate_contiguous_containerEPKvS5_S5_S5_, symObjAddr: 0x14E80, symBinAddr: 0x10001D014, symSize: 0x58 }
  - { offsetInCU: 0x12074, offset: 0x2B239, size: 0x8, addend: 0x0, symName: __ZNKSt3__16vectorIiNS_9allocatorIiEEE4dataB8ue170006Ev, symObjAddr: 0x14ED8, symBinAddr: 0x10001D06C, symSize: 0x64 }
  - { offsetInCU: 0x12098, offset: 0x2B25D, size: 0x8, addend: 0x0, symName: __ZNKSt3__16vectorIiNS_9allocatorIiEEE8capacityB8ue170006Ev, symObjAddr: 0x14F3C, symBinAddr: 0x10001D0D0, symSize: 0xBC }
  - { offsetInCU: 0x120BC, offset: 0x2B281, size: 0x8, addend: 0x0, symName: __ZNKSt3__16vectorIiNS_9allocatorIiEEE9__end_capB8ue170006Ev, symObjAddr: 0x1500C, symBinAddr: 0x10001D1A0, symSize: 0x28 }
  - { offsetInCU: 0x120E0, offset: 0x2B2A5, size: 0x8, addend: 0x0, symName: __ZNKSt3__117__compressed_pairIPiNS_9allocatorIiEEE5firstB8ue170006Ev, symObjAddr: 0x15034, symBinAddr: 0x10001D1C8, symSize: 0x24 }
  - { offsetInCU: 0x12104, offset: 0x2B2C9, size: 0x8, addend: 0x0, symName: __ZNKSt3__122__compressed_pair_elemIPiLi0ELb0EE5__getB8ue170006Ev, symObjAddr: 0x15058, symBinAddr: 0x10001D1EC, symSize: 0x14 }
  - { offsetInCU: 0x12141, offset: 0x2B306, size: 0x8, addend: 0x0, symName: __ZNSt3__16vectorIiNS_9allocatorIiEEE21_ConstructTransactionC1B8ue170006ERS3_m, symObjAddr: 0x1506C, symBinAddr: 0x10001D200, symSize: 0x3C }
  - { offsetInCU: 0x12187, offset: 0x2B34C, size: 0x8, addend: 0x0, symName: __ZNSt3__116allocator_traitsINS_9allocatorIiEEE9constructB8ue170006IiJRKiEvEEvRS2_PT_DpOT0_, symObjAddr: 0x150A8, symBinAddr: 0x10001D23C, symSize: 0x34 }
  - { offsetInCU: 0x121DD, offset: 0x2B3A2, size: 0x8, addend: 0x0, symName: __ZNSt3__16vectorIiNS_9allocatorIiEEE21_ConstructTransactionD1B8ue170006Ev, symObjAddr: 0x150DC, symBinAddr: 0x10001D270, symSize: 0x2C }
  - { offsetInCU: 0x12205, offset: 0x2B3CA, size: 0x8, addend: 0x0, symName: __ZNSt3__16vectorIiNS_9allocatorIiEEE21_ConstructTransactionC2B8ue170006ERS3_m, symObjAddr: 0x15108, symBinAddr: 0x10001D29C, symSize: 0x1D0 }
  - { offsetInCU: 0x1224B, offset: 0x2B410, size: 0x8, addend: 0x0, symName: __ZNKSt3__16vectorIiNS_9allocatorIiEEE19__annotate_increaseB8ue170006Em, symObjAddr: 0x152D8, symBinAddr: 0x10001D46C, symSize: 0xD8 }
  - { offsetInCU: 0x1227E, offset: 0x2B443, size: 0x8, addend: 0x0, symName: __ZNKSt3__16vectorIiNS_9allocatorIiEEE4sizeB8ue170006Ev, symObjAddr: 0x153B0, symBinAddr: 0x10001D544, symSize: 0xB0 }
  - { offsetInCU: 0x122A2, offset: 0x2B467, size: 0x8, addend: 0x0, symName: __ZNSt3__19allocatorIiE9constructB8ue170006IiJRKiEEEvPT_DpOT0_, symObjAddr: 0x15460, symBinAddr: 0x10001D5F4, symSize: 0x104 }
  - { offsetInCU: 0x122F6, offset: 0x2B4BB, size: 0x8, addend: 0x0, symName: __ZNSt3__16vectorIiNS_9allocatorIiEEE21_ConstructTransactionD2B8ue170006Ev, symObjAddr: 0x15564, symBinAddr: 0x10001D6F8, symSize: 0x278 }
  - { offsetInCU: 0x1231E, offset: 0x2B4E3, size: 0x8, addend: 0x0, symName: __ZNKSt3__16vectorIiNS_9allocatorIiEEE17__annotate_shrinkB8ue170006Em, symObjAddr: 0x157DC, symBinAddr: 0x10001D970, symSize: 0xC8 }
  - { offsetInCU: 0x12351, offset: 0x2B516, size: 0x8, addend: 0x0, symName: __ZNSt3__128__exception_guard_exceptionsINS_6vectorIiNS_9allocatorIiEEE16__destroy_vectorEED2B8ue170006Ev, symObjAddr: 0x158A4, symBinAddr: 0x10001DA38, symSize: 0xBC }
  - { offsetInCU: 0x12379, offset: 0x2B53E, size: 0x8, addend: 0x0, symName: __ZNSt3__16vectorIiNS_9allocatorIiEEE16__destroy_vectorclB8ue170006Ev, symObjAddr: 0x15960, symBinAddr: 0x10001DAF4, symSize: 0x228 }
  - { offsetInCU: 0x1239D, offset: 0x2B562, size: 0x8, addend: 0x0, symName: __ZNSt3__16vectorIiNS_9allocatorIiEEE7__clearB8ue170006Ev, symObjAddr: 0x15B88, symBinAddr: 0x10001DD1C, symSize: 0x64 }
  - { offsetInCU: 0x123C1, offset: 0x2B586, size: 0x8, addend: 0x0, symName: __ZNKSt3__16vectorIiNS_9allocatorIiEEE17__annotate_deleteB8ue170006Ev, symObjAddr: 0x15BEC, symBinAddr: 0x10001DD80, symSize: 0xCC }
  - { offsetInCU: 0x123E5, offset: 0x2B5AA, size: 0x8, addend: 0x0, symName: __ZNSt3__116allocator_traitsINS_9allocatorIiEEE10deallocateB8ue170006ERS2_Pim, symObjAddr: 0x15CB8, symBinAddr: 0x10001DE4C, symSize: 0x34 }
  - { offsetInCU: 0x12426, offset: 0x2B5EB, size: 0x8, addend: 0x0, symName: __ZNSt3__16vectorIiNS_9allocatorIiEEE22__base_destruct_at_endB8ue170006EPi, symObjAddr: 0x15CEC, symBinAddr: 0x10001DE80, symSize: 0x114 }
  - { offsetInCU: 0x12468, offset: 0x2B62D, size: 0x8, addend: 0x0, symName: __ZNSt3__116allocator_traitsINS_9allocatorIiEEE7destroyB8ue170006IivEEvRS2_PT_, symObjAddr: 0x15E00, symBinAddr: 0x10001DF94, symSize: 0x2C }
  - { offsetInCU: 0x124A4, offset: 0x2B669, size: 0x8, addend: 0x0, symName: __ZNSt3__19allocatorIiE7destroyB8ue170006EPi, symObjAddr: 0x15E2C, symBinAddr: 0x10001DFC0, symSize: 0x14 }
  - { offsetInCU: 0x124D6, offset: 0x2B69B, size: 0x8, addend: 0x0, symName: __ZNSt3__19allocatorIiE10deallocateB8ue170006EPim, symObjAddr: 0x15E40, symBinAddr: 0x10001DFD4, symSize: 0x4C }
  - { offsetInCU: 0x12516, offset: 0x2B6DB, size: 0x8, addend: 0x0, symName: __ZNSt3__16vectorIiNS_9allocatorIiEEED2B8ue170006Ev, symObjAddr: 0x15E8C, symBinAddr: 0x10001E020, symSize: 0x1F4 }
  - { offsetInCU: 0x1253F, offset: 0x2B704, size: 0x8, addend: 0x0, symName: __ZNSt3__16vectorINS0_IiNS_9allocatorIiEEEENS1_IS3_EEEC2EmRKS3_, symObjAddr: 0x16080, symBinAddr: 0x10001E214, symSize: 0x498 }
  - { offsetInCU: 0x125A4, offset: 0x2B769, size: 0x8, addend: 0x0, symName: __ZNSt3__117__compressed_pairIPNS_6vectorIiNS_9allocatorIiEEEENS2_IS4_EEEC1B8ue170006IDnNS_18__default_init_tagEEEOT_OT0_, symObjAddr: 0x16518, symBinAddr: 0x10001E6AC, symSize: 0x3C }
  - { offsetInCU: 0x125FA, offset: 0x2B7BF, size: 0x8, addend: 0x0, symName: __ZNSt3__16vectorINS0_IiNS_9allocatorIiEEEENS1_IS3_EEE16__destroy_vectorC1B8ue170006ERS5_, symObjAddr: 0x167CC, symBinAddr: 0x10001E960, symSize: 0x34 }
  - { offsetInCU: 0x12631, offset: 0x2B7F6, size: 0x8, addend: 0x0, symName: __ZNSt3__16vectorINS0_IiNS_9allocatorIiEEEENS1_IS3_EEE11__vallocateB8ue170006Em, symObjAddr: 0x16800, symBinAddr: 0x10001E994, symSize: 0x428 }
  - { offsetInCU: 0x12679, offset: 0x2B83E, size: 0x8, addend: 0x0, symName: __ZNSt3__16vectorINS0_IiNS_9allocatorIiEEEENS1_IS3_EEE18__construct_at_endEmRKS3_, symObjAddr: 0x16C28, symBinAddr: 0x10001EDBC, symSize: 0x3EC }
  - { offsetInCU: 0x12703, offset: 0x2B8C8, size: 0x8, addend: 0x0, symName: __ZNSt3__128__exception_guard_exceptionsINS_6vectorINS1_IiNS_9allocatorIiEEEENS2_IS4_EEE16__destroy_vectorEE10__completeB8ue170006Ev, symObjAddr: 0x17014, symBinAddr: 0x10001F1A8, symSize: 0x8C }
  - { offsetInCU: 0x12727, offset: 0x2B8EC, size: 0x8, addend: 0x0, symName: __ZNSt3__128__exception_guard_exceptionsINS_6vectorINS1_IiNS_9allocatorIiEEEENS2_IS4_EEE16__destroy_vectorEED1B8ue170006Ev, symObjAddr: 0x170A0, symBinAddr: 0x10001F234, symSize: 0x2C }
  - { offsetInCU: 0x1274F, offset: 0x2B914, size: 0x8, addend: 0x0, symName: __ZNSt3__117__compressed_pairIPNS_6vectorIiNS_9allocatorIiEEEENS2_IS4_EEEC2B8ue170006IDnNS_18__default_init_tagEEEOT_OT0_, symObjAddr: 0x170CC, symBinAddr: 0x10001F260, symSize: 0x40 }
  - { offsetInCU: 0x127A5, offset: 0x2B96A, size: 0x8, addend: 0x0, symName: __ZNSt3__122__compressed_pair_elemIPNS_6vectorIiNS_9allocatorIiEEEELi0ELb0EEC2B8ue170006IDnvEEOT_, symObjAddr: 0x1710C, symBinAddr: 0x10001F2A0, symSize: 0x64 }
  - { offsetInCU: 0x127E5, offset: 0x2B9AA, size: 0x8, addend: 0x0, symName: __ZNSt3__122__compressed_pair_elemINS_9allocatorINS_6vectorIiNS1_IiEEEEEELi1ELb1EEC2B8ue170006ENS_18__default_init_tagE, symObjAddr: 0x17170, symBinAddr: 0x10001F304, symSize: 0x2C }
  - { offsetInCU: 0x12817, offset: 0x2B9DC, size: 0x8, addend: 0x0, symName: __ZNSt3__19allocatorINS_6vectorIiNS0_IiEEEEEC2B8ue170006Ev, symObjAddr: 0x1719C, symBinAddr: 0x10001F330, symSize: 0x2C }
  - { offsetInCU: 0x1283F, offset: 0x2BA04, size: 0x8, addend: 0x0, symName: __ZNSt3__116__non_trivial_ifILb1ENS_9allocatorINS_6vectorIiNS1_IiEEEEEEEC2B8ue170006Ev, symObjAddr: 0x171C8, symBinAddr: 0x10001F35C, symSize: 0x14 }
  - { offsetInCU: 0x12867, offset: 0x2BA2C, size: 0x8, addend: 0x0, symName: __ZNSt3__128__exception_guard_exceptionsINS_6vectorINS1_IiNS_9allocatorIiEEEENS2_IS4_EEE16__destroy_vectorEEC1B8ue170006ES7_, symObjAddr: 0x171DC, symBinAddr: 0x10001F370, symSize: 0x238 }
  - { offsetInCU: 0x128A2, offset: 0x2BA67, size: 0x8, addend: 0x0, symName: __ZNSt3__128__exception_guard_exceptionsINS_6vectorINS1_IiNS_9allocatorIiEEEENS2_IS4_EEE16__destroy_vectorEEC2B8ue170006ES7_, symObjAddr: 0x17414, symBinAddr: 0x10001F5A8, symSize: 0x264 }
  - { offsetInCU: 0x128DD, offset: 0x2BAA2, size: 0x8, addend: 0x0, symName: __ZNSt3__16vectorINS0_IiNS_9allocatorIiEEEENS1_IS3_EEE16__destroy_vectorC2B8ue170006ERS5_, symObjAddr: 0x17678, symBinAddr: 0x10001F80C, symSize: 0x70 }
  - { offsetInCU: 0x12914, offset: 0x2BAD9, size: 0x8, addend: 0x0, symName: __ZNKSt3__16vectorINS0_IiNS_9allocatorIiEEEENS1_IS3_EEE8max_sizeEv, symObjAddr: 0x176E8, symBinAddr: 0x10001F87C, symSize: 0x2FC }
  - { offsetInCU: 0x1293C, offset: 0x2BB01, size: 0x8, addend: 0x0, symName: __ZNKSt3__16vectorINS0_IiNS_9allocatorIiEEEENS1_IS3_EEE20__throw_length_errorB8ue170006Ev, symObjAddr: 0x179E4, symBinAddr: 0x10001FB78, symSize: 0x20 }
  - { offsetInCU: 0x12960, offset: 0x2BB25, size: 0x8, addend: 0x0, symName: __ZNSt3__16vectorINS0_IiNS_9allocatorIiEEEENS1_IS3_EEE7__allocB8ue170006Ev, symObjAddr: 0x17C90, symBinAddr: 0x10001FE24, symSize: 0x28 }
  - { offsetInCU: 0x12984, offset: 0x2BB49, size: 0x8, addend: 0x0, symName: __ZNSt3__16vectorINS0_IiNS_9allocatorIiEEEENS1_IS3_EEE9__end_capB8ue170006Ev, symObjAddr: 0x17CB8, symBinAddr: 0x10001FE4C, symSize: 0x28 }
  - { offsetInCU: 0x129A8, offset: 0x2BB6D, size: 0x8, addend: 0x0, symName: __ZNKSt3__16vectorINS0_IiNS_9allocatorIiEEEENS1_IS3_EEE14__annotate_newB8ue170006Em, symObjAddr: 0x17CE0, symBinAddr: 0x10001FE74, symSize: 0xDC }
  - { offsetInCU: 0x129E5, offset: 0x2BBAA, size: 0x8, addend: 0x0, symName: __ZNSt3__116allocator_traitsINS_9allocatorINS_6vectorIiNS1_IiEEEEEEE8max_sizeB8ue170006IS5_vEEmRKS5_, symObjAddr: 0x17DBC, symBinAddr: 0x10001FF50, symSize: 0x24 }
  - { offsetInCU: 0x12A12, offset: 0x2BBD7, size: 0x8, addend: 0x0, symName: __ZNKSt3__16vectorINS0_IiNS_9allocatorIiEEEENS1_IS3_EEE7__allocB8ue170006Ev, symObjAddr: 0x17DE0, symBinAddr: 0x10001FF74, symSize: 0x28 }
  - { offsetInCU: 0x12A36, offset: 0x2BBFB, size: 0x8, addend: 0x0, symName: __ZNKSt3__19allocatorINS_6vectorIiNS0_IiEEEEE8max_sizeB8ue170006Ev, symObjAddr: 0x17E08, symBinAddr: 0x10001FF9C, symSize: 0x18 }
  - { offsetInCU: 0x12A5A, offset: 0x2BC1F, size: 0x8, addend: 0x0, symName: __ZNKSt3__117__compressed_pairIPNS_6vectorIiNS_9allocatorIiEEEENS2_IS4_EEE6secondB8ue170006Ev, symObjAddr: 0x17E20, symBinAddr: 0x10001FFB4, symSize: 0x24 }
  - { offsetInCU: 0x12A7E, offset: 0x2BC43, size: 0x8, addend: 0x0, symName: __ZNKSt3__122__compressed_pair_elemINS_9allocatorINS_6vectorIiNS1_IiEEEEEELi1ELb1EE5__getB8ue170006Ev, symObjAddr: 0x17E44, symBinAddr: 0x10001FFD8, symSize: 0x14 }
  - { offsetInCU: 0x12AA2, offset: 0x2BC67, size: 0x8, addend: 0x0, symName: __ZNSt3__19allocatorINS_6vectorIiNS0_IiEEEEE8allocateB8ue170006Em, symObjAddr: 0x17E58, symBinAddr: 0x10001FFEC, symSize: 0x60 }
  - { offsetInCU: 0x12AD4, offset: 0x2BC99, size: 0x8, addend: 0x0, symName: __ZNSt3__117__compressed_pairIPNS_6vectorIiNS_9allocatorIiEEEENS2_IS4_EEE6secondB8ue170006Ev, symObjAddr: 0x17EB8, symBinAddr: 0x10002004C, symSize: 0x24 }
  - { offsetInCU: 0x12AF8, offset: 0x2BCBD, size: 0x8, addend: 0x0, symName: __ZNSt3__122__compressed_pair_elemINS_9allocatorINS_6vectorIiNS1_IiEEEEEELi1ELb1EE5__getB8ue170006Ev, symObjAddr: 0x17EDC, symBinAddr: 0x100020070, symSize: 0x14 }
  - { offsetInCU: 0x12B1C, offset: 0x2BCE1, size: 0x8, addend: 0x0, symName: __ZNSt3__117__compressed_pairIPNS_6vectorIiNS_9allocatorIiEEEENS2_IS4_EEE5firstB8ue170006Ev, symObjAddr: 0x17EF0, symBinAddr: 0x100020084, symSize: 0x24 }
  - { offsetInCU: 0x12B40, offset: 0x2BD05, size: 0x8, addend: 0x0, symName: __ZNSt3__122__compressed_pair_elemIPNS_6vectorIiNS_9allocatorIiEEEELi0ELb0EE5__getB8ue170006Ev, symObjAddr: 0x17F14, symBinAddr: 0x1000200A8, symSize: 0x14 }
  - { offsetInCU: 0x12B64, offset: 0x2BD29, size: 0x8, addend: 0x0, symName: __ZNKSt3__16vectorINS0_IiNS_9allocatorIiEEEENS1_IS3_EEE31__annotate_contiguous_containerEPKvS7_S7_S7_, symObjAddr: 0x17F28, symBinAddr: 0x1000200BC, symSize: 0x58 }
  - { offsetInCU: 0x12BC4, offset: 0x2BD89, size: 0x8, addend: 0x0, symName: __ZNKSt3__16vectorINS0_IiNS_9allocatorIiEEEENS1_IS3_EEE4dataB8ue170006Ev, symObjAddr: 0x17F80, symBinAddr: 0x100020114, symSize: 0x64 }
  - { offsetInCU: 0x12BE8, offset: 0x2BDAD, size: 0x8, addend: 0x0, symName: __ZNKSt3__16vectorINS0_IiNS_9allocatorIiEEEENS1_IS3_EEE8capacityB8ue170006Ev, symObjAddr: 0x17FE4, symBinAddr: 0x100020178, symSize: 0xBC }
  - { offsetInCU: 0x12C0C, offset: 0x2BDD1, size: 0x8, addend: 0x0, symName: __ZNKSt3__16vectorINS0_IiNS_9allocatorIiEEEENS1_IS3_EEE9__end_capB8ue170006Ev, symObjAddr: 0x180B4, symBinAddr: 0x100020248, symSize: 0x28 }
  - { offsetInCU: 0x12C30, offset: 0x2BDF5, size: 0x8, addend: 0x0, symName: __ZNKSt3__117__compressed_pairIPNS_6vectorIiNS_9allocatorIiEEEENS2_IS4_EEE5firstB8ue170006Ev, symObjAddr: 0x180DC, symBinAddr: 0x100020270, symSize: 0x24 }
  - { offsetInCU: 0x12C54, offset: 0x2BE19, size: 0x8, addend: 0x0, symName: __ZNKSt3__122__compressed_pair_elemIPNS_6vectorIiNS_9allocatorIiEEEELi0ELb0EE5__getB8ue170006Ev, symObjAddr: 0x18100, symBinAddr: 0x100020294, symSize: 0x14 }
  - { offsetInCU: 0x12C91, offset: 0x2BE56, size: 0x8, addend: 0x0, symName: __ZNSt3__16vectorINS0_IiNS_9allocatorIiEEEENS1_IS3_EEE21_ConstructTransactionC1B8ue170006ERS5_m, symObjAddr: 0x18114, symBinAddr: 0x1000202A8, symSize: 0x3C }
  - { offsetInCU: 0x12CD7, offset: 0x2BE9C, size: 0x8, addend: 0x0, symName: __ZNSt3__116allocator_traitsINS_9allocatorINS_6vectorIiNS1_IiEEEEEEE9constructB8ue170006IS4_JRKS4_EvEEvRS5_PT_DpOT0_, symObjAddr: 0x18150, symBinAddr: 0x1000202E4, symSize: 0x34 }
  - { offsetInCU: 0x12D2D, offset: 0x2BEF2, size: 0x8, addend: 0x0, symName: __ZNSt3__16vectorINS0_IiNS_9allocatorIiEEEENS1_IS3_EEE21_ConstructTransactionD1B8ue170006Ev, symObjAddr: 0x18184, symBinAddr: 0x100020318, symSize: 0x2C }
  - { offsetInCU: 0x12D55, offset: 0x2BF1A, size: 0x8, addend: 0x0, symName: __ZNSt3__16vectorINS0_IiNS_9allocatorIiEEEENS1_IS3_EEE21_ConstructTransactionC2B8ue170006ERS5_m, symObjAddr: 0x181B0, symBinAddr: 0x100020344, symSize: 0x1D8 }
  - { offsetInCU: 0x12D9B, offset: 0x2BF60, size: 0x8, addend: 0x0, symName: __ZNKSt3__16vectorINS0_IiNS_9allocatorIiEEEENS1_IS3_EEE19__annotate_increaseB8ue170006Em, symObjAddr: 0x18388, symBinAddr: 0x10002051C, symSize: 0xF8 }
  - { offsetInCU: 0x12DCE, offset: 0x2BF93, size: 0x8, addend: 0x0, symName: __ZNKSt3__16vectorINS0_IiNS_9allocatorIiEEEENS1_IS3_EEE4sizeB8ue170006Ev, symObjAddr: 0x18480, symBinAddr: 0x100020614, symSize: 0xB0 }
  - { offsetInCU: 0x12DF2, offset: 0x2BFB7, size: 0x8, addend: 0x0, symName: __ZNSt3__19allocatorINS_6vectorIiNS0_IiEEEEE9constructB8ue170006IS3_JRKS3_EEEvPT_DpOT0_, symObjAddr: 0x18530, symBinAddr: 0x1000206C4, symSize: 0x30 }
  - { offsetInCU: 0x12E46, offset: 0x2C00B, size: 0x8, addend: 0x0, symName: __ZNSt3__16vectorIiNS_9allocatorIiEEEC1ERKS3_, symObjAddr: 0x18560, symBinAddr: 0x1000206F4, symSize: 0x34 }
  - { offsetInCU: 0x12E80, offset: 0x2C045, size: 0x8, addend: 0x0, symName: __ZNSt3__16vectorIiNS_9allocatorIiEEEC2ERKS3_, symObjAddr: 0x18594, symBinAddr: 0x100020728, symSize: 0x388 }
  - { offsetInCU: 0x12EBC, offset: 0x2C081, size: 0x8, addend: 0x0, symName: __ZNSt3__116allocator_traitsINS_9allocatorIiEEE37select_on_container_copy_constructionB8ue170006IS2_vvEES2_RKS2_, symObjAddr: 0x1891C, symBinAddr: 0x100020AB0, symSize: 0x10 }
  - { offsetInCU: 0x12EEF, offset: 0x2C0B4, size: 0x8, addend: 0x0, symName: __ZNSt3__117__compressed_pairIPiNS_9allocatorIiEEEC1B8ue170006IDnS3_EEOT_OT0_, symObjAddr: 0x1892C, symBinAddr: 0x100020AC0, symSize: 0x3C }
  - { offsetInCU: 0x12F45, offset: 0x2C10A, size: 0x8, addend: 0x0, symName: __ZNSt3__16vectorIiNS_9allocatorIiEEE16__init_with_sizeB8ue170006IPiS5_EEvT_T0_m, symObjAddr: 0x18968, symBinAddr: 0x100020AFC, symSize: 0x35C }
  - { offsetInCU: 0x12FBF, offset: 0x2C184, size: 0x8, addend: 0x0, symName: __ZNSt3__117__compressed_pairIPiNS_9allocatorIiEEEC2B8ue170006IDnS3_EEOT_OT0_, symObjAddr: 0x18CC4, symBinAddr: 0x100020E58, symSize: 0x44 }
  - { offsetInCU: 0x13015, offset: 0x2C1DA, size: 0x8, addend: 0x0, symName: __ZNSt3__122__compressed_pair_elemINS_9allocatorIiEELi1ELb1EEC2B8ue170006IS2_vEEOT_, symObjAddr: 0x18D08, symBinAddr: 0x100020E9C, symSize: 0x18 }
  - { offsetInCU: 0x13055, offset: 0x2C21A, size: 0x8, addend: 0x0, symName: __ZNSt3__16vectorIiNS_9allocatorIiEEE18__construct_at_endIPiS5_EEvT_T0_m, symObjAddr: 0x18D20, symBinAddr: 0x100020EB4, symSize: 0x380 }
  - { offsetInCU: 0x130F0, offset: 0x2C2B5, size: 0x8, addend: 0x0, symName: __ZNSt3__14pairIPiS1_EC1B8ue170006IS1_S1_LPv0EEEOT_OT0_, symObjAddr: 0x1997C, symBinAddr: 0x100021B10, symSize: 0x3C }
  - { offsetInCU: 0x1314D, offset: 0x2C312, size: 0x8, addend: 0x0, symName: __ZNSt3__14pairIPiS1_EC2B8ue170006IS1_S1_LPv0EEEOT_OT0_, symObjAddr: 0x199B8, symBinAddr: 0x100021B4C, symSize: 0x138 }
  - { offsetInCU: 0x131AA, offset: 0x2C36F, size: 0x8, addend: 0x0, symName: __ZNKSt3__114__copy_trivialclB8ue170006IiiLi0EEENS_4pairIPT_PT0_EES4_S4_S6_, symObjAddr: 0x1A758, symBinAddr: 0x1000228EC, symSize: 0x230 }
  - { offsetInCU: 0x13214, offset: 0x2C3D9, size: 0x8, addend: 0x0, symName: __ZNSt3__14pairIPiS1_EC1B8ue170006IRS1_S1_LPv0EEEOT_OT0_, symObjAddr: 0x1AFD8, symBinAddr: 0x10002316C, symSize: 0x3C }
  - { offsetInCU: 0x13271, offset: 0x2C436, size: 0x8, addend: 0x0, symName: __ZNSt3__14pairIPiS1_EC2B8ue170006IRS1_S1_LPv0EEEOT_OT0_, symObjAddr: 0x1B014, symBinAddr: 0x1000231A8, symSize: 0x138 }
  - { offsetInCU: 0x132CE, offset: 0x2C493, size: 0x8, addend: 0x0, symName: __ZNSt3__118__unwrap_iter_implIPiLb1EE8__unwrapB8ue170006ES1_, symObjAddr: 0x1B14C, symBinAddr: 0x1000232E0, symSize: 0x24 }
  - { offsetInCU: 0x132F0, offset: 0x2C4B5, size: 0x8, addend: 0x0, symName: __ZNSt3__118__unwrap_iter_implIPiLb1EE8__rewrapB8ue170006ES1_S1_, symObjAddr: 0x1B170, symBinAddr: 0x100023304, symSize: 0x50 }
  - { offsetInCU: 0x13320, offset: 0x2C4E5, size: 0x8, addend: 0x0, symName: __ZNSt3__16vectorINS0_IiNS_9allocatorIiEEEENS1_IS3_EEE21_ConstructTransactionD2B8ue170006Ev, symObjAddr: 0x1B1C0, symBinAddr: 0x100023354, symSize: 0x278 }
  - { offsetInCU: 0x13348, offset: 0x2C50D, size: 0x8, addend: 0x0, symName: __ZNKSt3__16vectorINS0_IiNS_9allocatorIiEEEENS1_IS3_EEE17__annotate_shrinkB8ue170006Em, symObjAddr: 0x1B438, symBinAddr: 0x1000235CC, symSize: 0xE4 }
  - { offsetInCU: 0x1337B, offset: 0x2C540, size: 0x8, addend: 0x0, symName: __ZNSt3__128__exception_guard_exceptionsINS_6vectorINS1_IiNS_9allocatorIiEEEENS2_IS4_EEE16__destroy_vectorEED2B8ue170006Ev, symObjAddr: 0x1B51C, symBinAddr: 0x1000236B0, symSize: 0xBC }
  - { offsetInCU: 0x133A3, offset: 0x2C568, size: 0x8, addend: 0x0, symName: __ZNSt3__16vectorINS0_IiNS_9allocatorIiEEEENS1_IS3_EEE16__destroy_vectorclB8ue170006Ev, symObjAddr: 0x1B5D8, symBinAddr: 0x10002376C, symSize: 0x228 }
  - { offsetInCU: 0x133C7, offset: 0x2C58C, size: 0x8, addend: 0x0, symName: __ZNSt3__16vectorINS0_IiNS_9allocatorIiEEEENS1_IS3_EEE7__clearB8ue170006Ev, symObjAddr: 0x1B800, symBinAddr: 0x100023994, symSize: 0x64 }
  - { offsetInCU: 0x133EB, offset: 0x2C5B0, size: 0x8, addend: 0x0, symName: __ZNKSt3__16vectorINS0_IiNS_9allocatorIiEEEENS1_IS3_EEE17__annotate_deleteB8ue170006Ev, symObjAddr: 0x1B864, symBinAddr: 0x1000239F8, symSize: 0xE8 }
  - { offsetInCU: 0x1340F, offset: 0x2C5D4, size: 0x8, addend: 0x0, symName: __ZNSt3__116allocator_traitsINS_9allocatorINS_6vectorIiNS1_IiEEEEEEE10deallocateB8ue170006ERS5_PS4_m, symObjAddr: 0x1B94C, symBinAddr: 0x100023AE0, symSize: 0x34 }
  - { offsetInCU: 0x13450, offset: 0x2C615, size: 0x8, addend: 0x0, symName: __ZNSt3__16vectorINS0_IiNS_9allocatorIiEEEENS1_IS3_EEE22__base_destruct_at_endB8ue170006EPS3_, symObjAddr: 0x1B980, symBinAddr: 0x100023B14, symSize: 0x114 }
  - { offsetInCU: 0x13492, offset: 0x2C657, size: 0x8, addend: 0x0, symName: __ZNSt3__116allocator_traitsINS_9allocatorINS_6vectorIiNS1_IiEEEEEEE7destroyB8ue170006IS4_vEEvRS5_PT_, symObjAddr: 0x1BA94, symBinAddr: 0x100023C28, symSize: 0x2C }
  - { offsetInCU: 0x134CE, offset: 0x2C693, size: 0x8, addend: 0x0, symName: __ZNSt3__19allocatorINS_6vectorIiNS0_IiEEEEE7destroyB8ue170006EPS3_, symObjAddr: 0x1BAC0, symBinAddr: 0x100023C54, symSize: 0x28 }
  - { offsetInCU: 0x13500, offset: 0x2C6C5, size: 0x8, addend: 0x0, symName: __ZNSt3__19allocatorINS_6vectorIiNS0_IiEEEEE10deallocateB8ue170006EPS3_m, symObjAddr: 0x1BAE8, symBinAddr: 0x100023C7C, symSize: 0x50 }
  - { offsetInCU: 0x13540, offset: 0x2C705, size: 0x8, addend: 0x0, symName: __ZNSt3__16vectorINS0_IiNS_9allocatorIiEEEENS1_IS3_EEED2B8ue170006Ev, symObjAddr: 0x1BB38, symBinAddr: 0x100023CCC, symSize: 0x1F4 }
  - { offsetInCU: 0x13569, offset: 0x2C72E, size: 0x8, addend: 0x0, symName: __ZNSt3__16vectorINS0_INS0_IiNS_9allocatorIiEEEENS1_IS3_EEEENS1_IS5_EEEC2EmRKS5_, symObjAddr: 0x1BD2C, symBinAddr: 0x100023EC0, symSize: 0x498 }
  - { offsetInCU: 0x135CE, offset: 0x2C793, size: 0x8, addend: 0x0, symName: __ZNSt3__117__compressed_pairIPNS_6vectorINS1_IiNS_9allocatorIiEEEENS2_IS4_EEEENS2_IS6_EEEC1B8ue170006IDnNS_18__default_init_tagEEEOT_OT0_, symObjAddr: 0x1C1C4, symBinAddr: 0x100024358, symSize: 0x3C }
  - { offsetInCU: 0x13624, offset: 0x2C7E9, size: 0x8, addend: 0x0, symName: __ZNSt3__16vectorINS0_INS0_IiNS_9allocatorIiEEEENS1_IS3_EEEENS1_IS5_EEE16__destroy_vectorC1B8ue170006ERS7_, symObjAddr: 0x1C478, symBinAddr: 0x10002460C, symSize: 0x34 }
  - { offsetInCU: 0x1365B, offset: 0x2C820, size: 0x8, addend: 0x0, symName: __ZNSt3__16vectorINS0_INS0_IiNS_9allocatorIiEEEENS1_IS3_EEEENS1_IS5_EEE11__vallocateB8ue170006Em, symObjAddr: 0x1C4AC, symBinAddr: 0x100024640, symSize: 0x428 }
  - { offsetInCU: 0x136A3, offset: 0x2C868, size: 0x8, addend: 0x0, symName: __ZNSt3__16vectorINS0_INS0_IiNS_9allocatorIiEEEENS1_IS3_EEEENS1_IS5_EEE18__construct_at_endEmRKS5_, symObjAddr: 0x1C8D4, symBinAddr: 0x100024A68, symSize: 0x3EC }
  - { offsetInCU: 0x1372D, offset: 0x2C8F2, size: 0x8, addend: 0x0, symName: __ZNSt3__128__exception_guard_exceptionsINS_6vectorINS1_INS1_IiNS_9allocatorIiEEEENS2_IS4_EEEENS2_IS6_EEE16__destroy_vectorEE10__completeB8ue170006Ev, symObjAddr: 0x1CCC0, symBinAddr: 0x100024E54, symSize: 0x8C }
  - { offsetInCU: 0x13751, offset: 0x2C916, size: 0x8, addend: 0x0, symName: __ZNSt3__128__exception_guard_exceptionsINS_6vectorINS1_INS1_IiNS_9allocatorIiEEEENS2_IS4_EEEENS2_IS6_EEE16__destroy_vectorEED1B8ue170006Ev, symObjAddr: 0x1CD4C, symBinAddr: 0x100024EE0, symSize: 0x2C }
  - { offsetInCU: 0x13779, offset: 0x2C93E, size: 0x8, addend: 0x0, symName: __ZNSt3__117__compressed_pairIPNS_6vectorINS1_IiNS_9allocatorIiEEEENS2_IS4_EEEENS2_IS6_EEEC2B8ue170006IDnNS_18__default_init_tagEEEOT_OT0_, symObjAddr: 0x1CD78, symBinAddr: 0x100024F0C, symSize: 0x40 }
  - { offsetInCU: 0x137CF, offset: 0x2C994, size: 0x8, addend: 0x0, symName: __ZNSt3__122__compressed_pair_elemIPNS_6vectorINS1_IiNS_9allocatorIiEEEENS2_IS4_EEEELi0ELb0EEC2B8ue170006IDnvEEOT_, symObjAddr: 0x1CDB8, symBinAddr: 0x100024F4C, symSize: 0x64 }
  - { offsetInCU: 0x1380F, offset: 0x2C9D4, size: 0x8, addend: 0x0, symName: __ZNSt3__122__compressed_pair_elemINS_9allocatorINS_6vectorINS2_IiNS1_IiEEEENS1_IS4_EEEEEELi1ELb1EEC2B8ue170006ENS_18__default_init_tagE, symObjAddr: 0x1CE1C, symBinAddr: 0x100024FB0, symSize: 0x2C }
  - { offsetInCU: 0x13841, offset: 0x2CA06, size: 0x8, addend: 0x0, symName: __ZNSt3__19allocatorINS_6vectorINS1_IiNS0_IiEEEENS0_IS3_EEEEEC2B8ue170006Ev, symObjAddr: 0x1CE48, symBinAddr: 0x100024FDC, symSize: 0x2C }
  - { offsetInCU: 0x13869, offset: 0x2CA2E, size: 0x8, addend: 0x0, symName: __ZNSt3__116__non_trivial_ifILb1ENS_9allocatorINS_6vectorINS2_IiNS1_IiEEEENS1_IS4_EEEEEEEC2B8ue170006Ev, symObjAddr: 0x1CE74, symBinAddr: 0x100025008, symSize: 0x14 }
  - { offsetInCU: 0x13891, offset: 0x2CA56, size: 0x8, addend: 0x0, symName: __ZNSt3__128__exception_guard_exceptionsINS_6vectorINS1_INS1_IiNS_9allocatorIiEEEENS2_IS4_EEEENS2_IS6_EEE16__destroy_vectorEEC1B8ue170006ES9_, symObjAddr: 0x1CE88, symBinAddr: 0x10002501C, symSize: 0x238 }
  - { offsetInCU: 0x138CC, offset: 0x2CA91, size: 0x8, addend: 0x0, symName: __ZNSt3__128__exception_guard_exceptionsINS_6vectorINS1_INS1_IiNS_9allocatorIiEEEENS2_IS4_EEEENS2_IS6_EEE16__destroy_vectorEEC2B8ue170006ES9_, symObjAddr: 0x1D0C0, symBinAddr: 0x100025254, symSize: 0x264 }
  - { offsetInCU: 0x13907, offset: 0x2CACC, size: 0x8, addend: 0x0, symName: __ZNSt3__16vectorINS0_INS0_IiNS_9allocatorIiEEEENS1_IS3_EEEENS1_IS5_EEE16__destroy_vectorC2B8ue170006ERS7_, symObjAddr: 0x1D324, symBinAddr: 0x1000254B8, symSize: 0x70 }
  - { offsetInCU: 0x1393E, offset: 0x2CB03, size: 0x8, addend: 0x0, symName: __ZNKSt3__16vectorINS0_INS0_IiNS_9allocatorIiEEEENS1_IS3_EEEENS1_IS5_EEE8max_sizeEv, symObjAddr: 0x1D394, symBinAddr: 0x100025528, symSize: 0x2FC }
  - { offsetInCU: 0x13966, offset: 0x2CB2B, size: 0x8, addend: 0x0, symName: __ZNKSt3__16vectorINS0_INS0_IiNS_9allocatorIiEEEENS1_IS3_EEEENS1_IS5_EEE20__throw_length_errorB8ue170006Ev, symObjAddr: 0x1D690, symBinAddr: 0x100025824, symSize: 0x20 }
  - { offsetInCU: 0x1398A, offset: 0x2CB4F, size: 0x8, addend: 0x0, symName: __ZNSt3__16vectorINS0_INS0_IiNS_9allocatorIiEEEENS1_IS3_EEEENS1_IS5_EEE7__allocB8ue170006Ev, symObjAddr: 0x1D93C, symBinAddr: 0x100025AD0, symSize: 0x28 }
  - { offsetInCU: 0x139AE, offset: 0x2CB73, size: 0x8, addend: 0x0, symName: __ZNSt3__16vectorINS0_INS0_IiNS_9allocatorIiEEEENS1_IS3_EEEENS1_IS5_EEE9__end_capB8ue170006Ev, symObjAddr: 0x1D964, symBinAddr: 0x100025AF8, symSize: 0x28 }
  - { offsetInCU: 0x139D2, offset: 0x2CB97, size: 0x8, addend: 0x0, symName: __ZNKSt3__16vectorINS0_INS0_IiNS_9allocatorIiEEEENS1_IS3_EEEENS1_IS5_EEE14__annotate_newB8ue170006Em, symObjAddr: 0x1D98C, symBinAddr: 0x100025B20, symSize: 0xDC }
  - { offsetInCU: 0x13A0F, offset: 0x2CBD4, size: 0x8, addend: 0x0, symName: __ZNSt3__116allocator_traitsINS_9allocatorINS_6vectorINS2_IiNS1_IiEEEENS1_IS4_EEEEEEE8max_sizeB8ue170006IS7_vEEmRKS7_, symObjAddr: 0x1DA68, symBinAddr: 0x100025BFC, symSize: 0x24 }
  - { offsetInCU: 0x13A3C, offset: 0x2CC01, size: 0x8, addend: 0x0, symName: __ZNKSt3__16vectorINS0_INS0_IiNS_9allocatorIiEEEENS1_IS3_EEEENS1_IS5_EEE7__allocB8ue170006Ev, symObjAddr: 0x1DA8C, symBinAddr: 0x100025C20, symSize: 0x28 }
  - { offsetInCU: 0x13A60, offset: 0x2CC25, size: 0x8, addend: 0x0, symName: __ZNKSt3__19allocatorINS_6vectorINS1_IiNS0_IiEEEENS0_IS3_EEEEE8max_sizeB8ue170006Ev, symObjAddr: 0x1DAB4, symBinAddr: 0x100025C48, symSize: 0x18 }
  - { offsetInCU: 0x13A84, offset: 0x2CC49, size: 0x8, addend: 0x0, symName: __ZNKSt3__117__compressed_pairIPNS_6vectorINS1_IiNS_9allocatorIiEEEENS2_IS4_EEEENS2_IS6_EEE6secondB8ue170006Ev, symObjAddr: 0x1DACC, symBinAddr: 0x100025C60, symSize: 0x24 }
  - { offsetInCU: 0x13AA8, offset: 0x2CC6D, size: 0x8, addend: 0x0, symName: __ZNKSt3__122__compressed_pair_elemINS_9allocatorINS_6vectorINS2_IiNS1_IiEEEENS1_IS4_EEEEEELi1ELb1EE5__getB8ue170006Ev, symObjAddr: 0x1DAF0, symBinAddr: 0x100025C84, symSize: 0x14 }
  - { offsetInCU: 0x13ACC, offset: 0x2CC91, size: 0x8, addend: 0x0, symName: __ZNSt3__19allocatorINS_6vectorINS1_IiNS0_IiEEEENS0_IS3_EEEEE8allocateB8ue170006Em, symObjAddr: 0x1DB04, symBinAddr: 0x100025C98, symSize: 0x60 }
  - { offsetInCU: 0x13AFE, offset: 0x2CCC3, size: 0x8, addend: 0x0, symName: __ZNSt3__117__compressed_pairIPNS_6vectorINS1_IiNS_9allocatorIiEEEENS2_IS4_EEEENS2_IS6_EEE6secondB8ue170006Ev, symObjAddr: 0x1DB64, symBinAddr: 0x100025CF8, symSize: 0x24 }
  - { offsetInCU: 0x13B22, offset: 0x2CCE7, size: 0x8, addend: 0x0, symName: __ZNSt3__122__compressed_pair_elemINS_9allocatorINS_6vectorINS2_IiNS1_IiEEEENS1_IS4_EEEEEELi1ELb1EE5__getB8ue170006Ev, symObjAddr: 0x1DB88, symBinAddr: 0x100025D1C, symSize: 0x14 }
  - { offsetInCU: 0x13B46, offset: 0x2CD0B, size: 0x8, addend: 0x0, symName: __ZNSt3__117__compressed_pairIPNS_6vectorINS1_IiNS_9allocatorIiEEEENS2_IS4_EEEENS2_IS6_EEE5firstB8ue170006Ev, symObjAddr: 0x1DB9C, symBinAddr: 0x100025D30, symSize: 0x24 }
  - { offsetInCU: 0x13B6A, offset: 0x2CD2F, size: 0x8, addend: 0x0, symName: __ZNSt3__122__compressed_pair_elemIPNS_6vectorINS1_IiNS_9allocatorIiEEEENS2_IS4_EEEELi0ELb0EE5__getB8ue170006Ev, symObjAddr: 0x1DBC0, symBinAddr: 0x100025D54, symSize: 0x14 }
  - { offsetInCU: 0x13B8E, offset: 0x2CD53, size: 0x8, addend: 0x0, symName: __ZNKSt3__16vectorINS0_INS0_IiNS_9allocatorIiEEEENS1_IS3_EEEENS1_IS5_EEE31__annotate_contiguous_containerEPKvS9_S9_S9_, symObjAddr: 0x1DBD4, symBinAddr: 0x100025D68, symSize: 0x58 }
  - { offsetInCU: 0x13BEE, offset: 0x2CDB3, size: 0x8, addend: 0x0, symName: __ZNKSt3__16vectorINS0_INS0_IiNS_9allocatorIiEEEENS1_IS3_EEEENS1_IS5_EEE4dataB8ue170006Ev, symObjAddr: 0x1DC2C, symBinAddr: 0x100025DC0, symSize: 0x64 }
  - { offsetInCU: 0x13C12, offset: 0x2CDD7, size: 0x8, addend: 0x0, symName: __ZNKSt3__16vectorINS0_INS0_IiNS_9allocatorIiEEEENS1_IS3_EEEENS1_IS5_EEE8capacityB8ue170006Ev, symObjAddr: 0x1DC90, symBinAddr: 0x100025E24, symSize: 0xBC }
  - { offsetInCU: 0x13C36, offset: 0x2CDFB, size: 0x8, addend: 0x0, symName: __ZNKSt3__16vectorINS0_INS0_IiNS_9allocatorIiEEEENS1_IS3_EEEENS1_IS5_EEE9__end_capB8ue170006Ev, symObjAddr: 0x1DD60, symBinAddr: 0x100025EF4, symSize: 0x28 }
  - { offsetInCU: 0x13C5A, offset: 0x2CE1F, size: 0x8, addend: 0x0, symName: __ZNKSt3__117__compressed_pairIPNS_6vectorINS1_IiNS_9allocatorIiEEEENS2_IS4_EEEENS2_IS6_EEE5firstB8ue170006Ev, symObjAddr: 0x1DD88, symBinAddr: 0x100025F1C, symSize: 0x24 }
  - { offsetInCU: 0x13C7E, offset: 0x2CE43, size: 0x8, addend: 0x0, symName: __ZNKSt3__122__compressed_pair_elemIPNS_6vectorINS1_IiNS_9allocatorIiEEEENS2_IS4_EEEELi0ELb0EE5__getB8ue170006Ev, symObjAddr: 0x1DDAC, symBinAddr: 0x100025F40, symSize: 0x14 }
  - { offsetInCU: 0x13CBB, offset: 0x2CE80, size: 0x8, addend: 0x0, symName: __ZNSt3__16vectorINS0_INS0_IiNS_9allocatorIiEEEENS1_IS3_EEEENS1_IS5_EEE21_ConstructTransactionC1B8ue170006ERS7_m, symObjAddr: 0x1DDC0, symBinAddr: 0x100025F54, symSize: 0x3C }
  - { offsetInCU: 0x13D01, offset: 0x2CEC6, size: 0x8, addend: 0x0, symName: __ZNSt3__116allocator_traitsINS_9allocatorINS_6vectorINS2_IiNS1_IiEEEENS1_IS4_EEEEEEE9constructB8ue170006IS6_JRKS6_EvEEvRS7_PT_DpOT0_, symObjAddr: 0x1DDFC, symBinAddr: 0x100025F90, symSize: 0x34 }
  - { offsetInCU: 0x13D57, offset: 0x2CF1C, size: 0x8, addend: 0x0, symName: __ZNSt3__16vectorINS0_INS0_IiNS_9allocatorIiEEEENS1_IS3_EEEENS1_IS5_EEE21_ConstructTransactionD1B8ue170006Ev, symObjAddr: 0x1DE30, symBinAddr: 0x100025FC4, symSize: 0x2C }
  - { offsetInCU: 0x13D7F, offset: 0x2CF44, size: 0x8, addend: 0x0, symName: __ZNSt3__16vectorINS0_INS0_IiNS_9allocatorIiEEEENS1_IS3_EEEENS1_IS5_EEE21_ConstructTransactionC2B8ue170006ERS7_m, symObjAddr: 0x1DE5C, symBinAddr: 0x100025FF0, symSize: 0x1D8 }
  - { offsetInCU: 0x13DC5, offset: 0x2CF8A, size: 0x8, addend: 0x0, symName: __ZNKSt3__16vectorINS0_INS0_IiNS_9allocatorIiEEEENS1_IS3_EEEENS1_IS5_EEE19__annotate_increaseB8ue170006Em, symObjAddr: 0x1E034, symBinAddr: 0x1000261C8, symSize: 0xF8 }
  - { offsetInCU: 0x13DF8, offset: 0x2CFBD, size: 0x8, addend: 0x0, symName: __ZNKSt3__16vectorINS0_INS0_IiNS_9allocatorIiEEEENS1_IS3_EEEENS1_IS5_EEE4sizeB8ue170006Ev, symObjAddr: 0x1E12C, symBinAddr: 0x1000262C0, symSize: 0xB0 }
  - { offsetInCU: 0x13E1C, offset: 0x2CFE1, size: 0x8, addend: 0x0, symName: __ZNSt3__19allocatorINS_6vectorINS1_IiNS0_IiEEEENS0_IS3_EEEEE9constructB8ue170006IS5_JRKS5_EEEvPT_DpOT0_, symObjAddr: 0x1E1DC, symBinAddr: 0x100026370, symSize: 0x30 }
  - { offsetInCU: 0x13E70, offset: 0x2D035, size: 0x8, addend: 0x0, symName: __ZNSt3__16vectorINS0_IiNS_9allocatorIiEEEENS1_IS3_EEEC1ERKS5_, symObjAddr: 0x1E20C, symBinAddr: 0x1000263A0, symSize: 0x34 }
  - { offsetInCU: 0x13EAA, offset: 0x2D06F, size: 0x8, addend: 0x0, symName: __ZNSt3__16vectorINS0_IiNS_9allocatorIiEEEENS1_IS3_EEEC2ERKS5_, symObjAddr: 0x1E240, symBinAddr: 0x1000263D4, symSize: 0x388 }
  - { offsetInCU: 0x13EE6, offset: 0x2D0AB, size: 0x8, addend: 0x0, symName: __ZNSt3__116allocator_traitsINS_9allocatorINS_6vectorIiNS1_IiEEEEEEE37select_on_container_copy_constructionB8ue170006IS5_vvEES5_RKS5_, symObjAddr: 0x1E5C8, symBinAddr: 0x10002675C, symSize: 0x10 }
  - { offsetInCU: 0x13F19, offset: 0x2D0DE, size: 0x8, addend: 0x0, symName: __ZNSt3__117__compressed_pairIPNS_6vectorIiNS_9allocatorIiEEEENS2_IS4_EEEC1B8ue170006IDnS6_EEOT_OT0_, symObjAddr: 0x1E5D8, symBinAddr: 0x10002676C, symSize: 0x3C }
  - { offsetInCU: 0x13F6F, offset: 0x2D134, size: 0x8, addend: 0x0, symName: __ZNSt3__16vectorINS0_IiNS_9allocatorIiEEEENS1_IS3_EEE16__init_with_sizeB8ue170006IPS3_S7_EEvT_T0_m, symObjAddr: 0x1E614, symBinAddr: 0x1000267A8, symSize: 0x35C }
  - { offsetInCU: 0x13FE9, offset: 0x2D1AE, size: 0x8, addend: 0x0, symName: __ZNSt3__117__compressed_pairIPNS_6vectorIiNS_9allocatorIiEEEENS2_IS4_EEEC2B8ue170006IDnS6_EEOT_OT0_, symObjAddr: 0x1E970, symBinAddr: 0x100026B04, symSize: 0x44 }
  - { offsetInCU: 0x1403F, offset: 0x2D204, size: 0x8, addend: 0x0, symName: __ZNSt3__122__compressed_pair_elemINS_9allocatorINS_6vectorIiNS1_IiEEEEEELi1ELb1EEC2B8ue170006IS5_vEEOT_, symObjAddr: 0x1E9B4, symBinAddr: 0x100026B48, symSize: 0x18 }
  - { offsetInCU: 0x1407F, offset: 0x2D244, size: 0x8, addend: 0x0, symName: __ZNSt3__16vectorINS0_IiNS_9allocatorIiEEEENS1_IS3_EEE18__construct_at_endIPS3_S7_EEvT_T0_m, symObjAddr: 0x1E9CC, symBinAddr: 0x100026B60, symSize: 0x380 }
  - { offsetInCU: 0x1411A, offset: 0x2D2DF, size: 0x8, addend: 0x0, symName: __ZNSt3__14pairIPNS_6vectorIiNS_9allocatorIiEEEES5_EC1B8ue170006IS5_S5_LPv0EEEOT_OT0_, symObjAddr: 0x1FB10, symBinAddr: 0x100027CA4, symSize: 0x3C }
  - { offsetInCU: 0x14177, offset: 0x2D33C, size: 0x8, addend: 0x0, symName: __ZNSt3__14pairIPNS_6vectorIiNS_9allocatorIiEEEES5_EC2B8ue170006IS5_S5_LPv0EEEOT_OT0_, symObjAddr: 0x1FB4C, symBinAddr: 0x100027CE0, symSize: 0x138 }
  - { offsetInCU: 0x141D4, offset: 0x2D399, size: 0x8, addend: 0x0, symName: __ZNSt3__129_AllocatorDestroyRangeReverseINS_9allocatorINS_6vectorIiNS1_IiEEEEEEPS4_EC1B8ue170006ERS5_RS6_S9_, symObjAddr: 0x1FE7C, symBinAddr: 0x100028010, symSize: 0x44 }
  - { offsetInCU: 0x14229, offset: 0x2D3EE, size: 0x8, addend: 0x0, symName: __ZNSt3__116allocator_traitsINS_9allocatorINS_6vectorIiNS1_IiEEEEEEE9constructB8ue170006IS4_JRS4_EvEEvRS5_PT_DpOT0_, symObjAddr: 0x1FEC0, symBinAddr: 0x100028054, symSize: 0x34 }
  - { offsetInCU: 0x1427F, offset: 0x2D444, size: 0x8, addend: 0x0, symName: __ZNSt3__128__exception_guard_exceptionsINS_29_AllocatorDestroyRangeReverseINS_9allocatorINS_6vectorIiNS2_IiEEEEEEPS5_EEE10__completeB8ue170006Ev, symObjAddr: 0x1FEF4, symBinAddr: 0x100028088, symSize: 0x8C }
  - { offsetInCU: 0x142A3, offset: 0x2D468, size: 0x8, addend: 0x0, symName: __ZNSt3__128__exception_guard_exceptionsINS_29_AllocatorDestroyRangeReverseINS_9allocatorINS_6vectorIiNS2_IiEEEEEEPS5_EEED1B8ue170006Ev, symObjAddr: 0x1FF80, symBinAddr: 0x100028114, symSize: 0x2C }
  - { offsetInCU: 0x142CB, offset: 0x2D490, size: 0x8, addend: 0x0, symName: __ZNSt3__128__exception_guard_exceptionsINS_29_AllocatorDestroyRangeReverseINS_9allocatorINS_6vectorIiNS2_IiEEEEEEPS5_EEEC1B8ue170006ES8_, symObjAddr: 0x1FFAC, symBinAddr: 0x100028140, symSize: 0x34 }
  - { offsetInCU: 0x14302, offset: 0x2D4C7, size: 0x8, addend: 0x0, symName: __ZNSt3__128__exception_guard_exceptionsINS_29_AllocatorDestroyRangeReverseINS_9allocatorINS_6vectorIiNS2_IiEEEEEEPS5_EEEC2B8ue170006ES8_, symObjAddr: 0x1FFE0, symBinAddr: 0x100028174, symSize: 0xA4 }
  - { offsetInCU: 0x14339, offset: 0x2D4FE, size: 0x8, addend: 0x0, symName: __ZNSt3__129_AllocatorDestroyRangeReverseINS_9allocatorINS_6vectorIiNS1_IiEEEEEEPS4_EC2B8ue170006ERS5_RS6_S9_, symObjAddr: 0x20084, symBinAddr: 0x100028218, symSize: 0x104 }
  - { offsetInCU: 0x1438E, offset: 0x2D553, size: 0x8, addend: 0x0, symName: __ZNSt3__19allocatorINS_6vectorIiNS0_IiEEEEE9constructB8ue170006IS3_JRS3_EEEvPT_DpOT0_, symObjAddr: 0x20188, symBinAddr: 0x10002831C, symSize: 0x30 }
  - { offsetInCU: 0x143E2, offset: 0x2D5A7, size: 0x8, addend: 0x0, symName: __ZNSt3__128__exception_guard_exceptionsINS_29_AllocatorDestroyRangeReverseINS_9allocatorINS_6vectorIiNS2_IiEEEEEEPS5_EEED2B8ue170006Ev, symObjAddr: 0x201B8, symBinAddr: 0x10002834C, symSize: 0xBC }
  - { offsetInCU: 0x1440A, offset: 0x2D5CF, size: 0x8, addend: 0x0, symName: __ZNKSt3__129_AllocatorDestroyRangeReverseINS_9allocatorINS_6vectorIiNS1_IiEEEEEEPS4_EclB8ue170006Ev, symObjAddr: 0x20274, symBinAddr: 0x100028408, symSize: 0x39C }
  - { offsetInCU: 0x1442F, offset: 0x2D5F4, size: 0x8, addend: 0x0, symName: __ZNSt3__116reverse_iteratorIPNS_6vectorIiNS_9allocatorIiEEEEEC1B8ue170006ES5_, symObjAddr: 0x208C8, symBinAddr: 0x100028A5C, symSize: 0x34 }
  - { offsetInCU: 0x14465, offset: 0x2D62A, size: 0x8, addend: 0x0, symName: __ZNSt3__116reverse_iteratorIPNS_6vectorIiNS_9allocatorIiEEEEEppB8ue170006Ev, symObjAddr: 0x20968, symBinAddr: 0x100028AFC, symSize: 0x6C }
  - { offsetInCU: 0x14489, offset: 0x2D64E, size: 0x8, addend: 0x0, symName: __ZNKSt3__116reverse_iteratorIPNS_6vectorIiNS_9allocatorIiEEEEE4baseB8ue170006Ev, symObjAddr: 0x209D4, symBinAddr: 0x100028B68, symSize: 0x64 }
  - { offsetInCU: 0x144B2, offset: 0x2D677, size: 0x8, addend: 0x0, symName: __ZNSt3__119__to_address_helperINS_16reverse_iteratorIPNS_6vectorIiNS_9allocatorIiEEEEEEvE6__callB8ue170006ERKS7_, symObjAddr: 0x20A38, symBinAddr: 0x100028BCC, symSize: 0x44 }
  - { offsetInCU: 0x144D4, offset: 0x2D699, size: 0x8, addend: 0x0, symName: __ZNKSt3__116reverse_iteratorIPNS_6vectorIiNS_9allocatorIiEEEEEptB8ue170006Ev, symObjAddr: 0x20A7C, symBinAddr: 0x100028C10, symSize: 0x24 }
  - { offsetInCU: 0x144F8, offset: 0x2D6BD, size: 0x8, addend: 0x0, symName: __ZNKSt3__116reverse_iteratorIPNS_6vectorIiNS_9allocatorIiEEEEEdeB8ue170006Ev, symObjAddr: 0x20AA0, symBinAddr: 0x100028C34, symSize: 0x74 }
  - { offsetInCU: 0x1452B, offset: 0x2D6F0, size: 0x8, addend: 0x0, symName: __ZNSt3__116reverse_iteratorIPNS_6vectorIiNS_9allocatorIiEEEEEC2B8ue170006ES5_, symObjAddr: 0x20B14, symBinAddr: 0x100028CA8, symSize: 0xB8 }
  - { offsetInCU: 0x14561, offset: 0x2D726, size: 0x8, addend: 0x0, symName: __ZNSt3__118__unwrap_iter_implIPNS_6vectorIiNS_9allocatorIiEEEELb1EE8__unwrapB8ue170006ES5_, symObjAddr: 0x20BCC, symBinAddr: 0x100028D60, symSize: 0x24 }
  - { offsetInCU: 0x14583, offset: 0x2D748, size: 0x8, addend: 0x0, symName: __ZNSt3__118__unwrap_iter_implIPNS_6vectorIiNS_9allocatorIiEEEELb1EE8__rewrapB8ue170006ES5_S5_, symObjAddr: 0x20BF0, symBinAddr: 0x100028D84, symSize: 0x58 }
  - { offsetInCU: 0x145B3, offset: 0x2D778, size: 0x8, addend: 0x0, symName: __ZNSt3__16vectorINS0_INS0_IiNS_9allocatorIiEEEENS1_IS3_EEEENS1_IS5_EEE21_ConstructTransactionD2B8ue170006Ev, symObjAddr: 0x20C48, symBinAddr: 0x100028DDC, symSize: 0x278 }
  - { offsetInCU: 0x145DB, offset: 0x2D7A0, size: 0x8, addend: 0x0, symName: __ZNKSt3__16vectorINS0_INS0_IiNS_9allocatorIiEEEENS1_IS3_EEEENS1_IS5_EEE17__annotate_shrinkB8ue170006Em, symObjAddr: 0x20EC0, symBinAddr: 0x100029054, symSize: 0xE4 }
  - { offsetInCU: 0x1460E, offset: 0x2D7D3, size: 0x8, addend: 0x0, symName: __ZNSt3__128__exception_guard_exceptionsINS_6vectorINS1_INS1_IiNS_9allocatorIiEEEENS2_IS4_EEEENS2_IS6_EEE16__destroy_vectorEED2B8ue170006Ev, symObjAddr: 0x20FA4, symBinAddr: 0x100029138, symSize: 0xBC }
  - { offsetInCU: 0x14636, offset: 0x2D7FB, size: 0x8, addend: 0x0, symName: __ZNSt3__16vectorINS0_INS0_IiNS_9allocatorIiEEEENS1_IS3_EEEENS1_IS5_EEE16__destroy_vectorclB8ue170006Ev, symObjAddr: 0x21060, symBinAddr: 0x1000291F4, symSize: 0x228 }
  - { offsetInCU: 0x1465A, offset: 0x2D81F, size: 0x8, addend: 0x0, symName: __ZNSt3__16vectorINS0_INS0_IiNS_9allocatorIiEEEENS1_IS3_EEEENS1_IS5_EEE7__clearB8ue170006Ev, symObjAddr: 0x21288, symBinAddr: 0x10002941C, symSize: 0x64 }
  - { offsetInCU: 0x1467E, offset: 0x2D843, size: 0x8, addend: 0x0, symName: __ZNKSt3__16vectorINS0_INS0_IiNS_9allocatorIiEEEENS1_IS3_EEEENS1_IS5_EEE17__annotate_deleteB8ue170006Ev, symObjAddr: 0x212EC, symBinAddr: 0x100029480, symSize: 0xE8 }
  - { offsetInCU: 0x146A2, offset: 0x2D867, size: 0x8, addend: 0x0, symName: __ZNSt3__116allocator_traitsINS_9allocatorINS_6vectorINS2_IiNS1_IiEEEENS1_IS4_EEEEEEE10deallocateB8ue170006ERS7_PS6_m, symObjAddr: 0x213D4, symBinAddr: 0x100029568, symSize: 0x34 }
  - { offsetInCU: 0x146E3, offset: 0x2D8A8, size: 0x8, addend: 0x0, symName: __ZNSt3__16vectorINS0_INS0_IiNS_9allocatorIiEEEENS1_IS3_EEEENS1_IS5_EEE22__base_destruct_at_endB8ue170006EPS5_, symObjAddr: 0x21408, symBinAddr: 0x10002959C, symSize: 0x114 }
  - { offsetInCU: 0x14725, offset: 0x2D8EA, size: 0x8, addend: 0x0, symName: __ZNSt3__116allocator_traitsINS_9allocatorINS_6vectorINS2_IiNS1_IiEEEENS1_IS4_EEEEEEE7destroyB8ue170006IS6_vEEvRS7_PT_, symObjAddr: 0x2151C, symBinAddr: 0x1000296B0, symSize: 0x2C }
  - { offsetInCU: 0x14761, offset: 0x2D926, size: 0x8, addend: 0x0, symName: __ZNSt3__19allocatorINS_6vectorINS1_IiNS0_IiEEEENS0_IS3_EEEEE7destroyB8ue170006EPS5_, symObjAddr: 0x21548, symBinAddr: 0x1000296DC, symSize: 0x28 }
  - { offsetInCU: 0x14793, offset: 0x2D958, size: 0x8, addend: 0x0, symName: __ZNSt3__19allocatorINS_6vectorINS1_IiNS0_IiEEEENS0_IS3_EEEEE10deallocateB8ue170006EPS5_m, symObjAddr: 0x21570, symBinAddr: 0x100029704, symSize: 0x50 }
  - { offsetInCU: 0x147D3, offset: 0x2D998, size: 0x8, addend: 0x0, symName: __ZNSt3__16vectorINS0_INS0_IiNS_9allocatorIiEEEENS1_IS3_EEEENS1_IS5_EEED2B8ue170006Ev, symObjAddr: 0x215C0, symBinAddr: 0x100029754, symSize: 0x1F4 }
  - { offsetInCU: 0x3B, offset: 0x2DB68, size: 0x8, addend: 0x0, symName: ___func__._Z14test_WaterCellv, symObjAddr: 0x3380, symBinAddr: 0x100031580, symSize: 0x0 }
  - { offsetInCU: 0x6B, offset: 0x2DB98, size: 0x8, addend: 0x0, symName: _.str, symObjAddr: 0x33A0, symBinAddr: 0x1000315A0, symSize: 0x0 }
  - { offsetInCU: 0x88, offset: 0x2DBB5, size: 0x8, addend: 0x0, symName: _.str.1, symObjAddr: 0x33E0, symBinAddr: 0x1000315E0, symSize: 0x0 }
  - { offsetInCU: 0xA5, offset: 0x2DBD2, size: 0x8, addend: 0x0, symName: _.str.2, symObjAddr: 0x3400, symBinAddr: 0x100031600, symSize: 0x0 }
  - { offsetInCU: 0xB6, offset: 0x2DBE3, size: 0x8, addend: 0x0, symName: _.str.3, symObjAddr: 0x3420, symBinAddr: 0x100031620, symSize: 0x0 }
  - { offsetInCU: 0xC7, offset: 0x2DBF4, size: 0x8, addend: 0x0, symName: _.str.4, symObjAddr: 0x3440, symBinAddr: 0x100031640, symSize: 0x0 }
  - { offsetInCU: 0xD8, offset: 0x2DC05, size: 0x8, addend: 0x0, symName: _.str.5, symObjAddr: 0x3460, symBinAddr: 0x100031660, symSize: 0x0 }
  - { offsetInCU: 0xE9, offset: 0x2DC16, size: 0x8, addend: 0x0, symName: _.str.6, symObjAddr: 0x3480, symBinAddr: 0x100031680, symSize: 0x0 }
  - { offsetInCU: 0xFA, offset: 0x2DC27, size: 0x8, addend: 0x0, symName: _.str.7, symObjAddr: 0x34A0, symBinAddr: 0x1000316A0, symSize: 0x0 }
  - { offsetInCU: 0x117, offset: 0x2DC44, size: 0x8, addend: 0x0, symName: _.str.8, symObjAddr: 0x34C0, symBinAddr: 0x1000316C0, symSize: 0x0 }
  - { offsetInCU: 0x128, offset: 0x2DC55, size: 0x8, addend: 0x0, symName: _.str.9, symObjAddr: 0x34E0, symBinAddr: 0x1000316E0, symSize: 0x0 }
  - { offsetInCU: 0x139, offset: 0x2DC66, size: 0x8, addend: 0x0, symName: _.str.10, symObjAddr: 0x3500, symBinAddr: 0x100031700, symSize: 0x0 }
  - { offsetInCU: 0x14A, offset: 0x2DC77, size: 0x8, addend: 0x0, symName: _.str.11, symObjAddr: 0x3520, symBinAddr: 0x100031720, symSize: 0x0 }
  - { offsetInCU: 0x15B, offset: 0x2DC88, size: 0x8, addend: 0x0, symName: _.str.12, symObjAddr: 0x3540, symBinAddr: 0x100031740, symSize: 0x0 }
  - { offsetInCU: 0x178, offset: 0x2DCA5, size: 0x8, addend: 0x0, symName: _.str.13, symObjAddr: 0x3560, symBinAddr: 0x100031760, symSize: 0x0 }
  - { offsetInCU: 0x195, offset: 0x2DCC2, size: 0x8, addend: 0x0, symName: _.str.14, symObjAddr: 0x35A0, symBinAddr: 0x1000317A0, symSize: 0x0 }
  - { offsetInCU: 0x1B2, offset: 0x2DCDF, size: 0x8, addend: 0x0, symName: _.str.15, symObjAddr: 0x3620, symBinAddr: 0x100031820, symSize: 0x0 }
  - { offsetInCU: 0x1CF, offset: 0x2DCFC, size: 0x8, addend: 0x0, symName: _.str.16, symObjAddr: 0x3660, symBinAddr: 0x100031860, symSize: 0x0 }
  - { offsetInCU: 0x1EC, offset: 0x2DD19, size: 0x8, addend: 0x0, symName: _.str.17, symObjAddr: 0x36E0, symBinAddr: 0x1000318E0, symSize: 0x0 }
  - { offsetInCU: 0x1FD, offset: 0x2DD2A, size: 0x8, addend: 0x0, symName: _.str.18, symObjAddr: 0x3700, symBinAddr: 0x100031900, symSize: 0x0 }
  - { offsetInCU: 0x20E, offset: 0x2DD3B, size: 0x8, addend: 0x0, symName: _.str.19, symObjAddr: 0x3720, symBinAddr: 0x100031920, symSize: 0x0 }
  - { offsetInCU: 0x21F, offset: 0x2DD4C, size: 0x8, addend: 0x0, symName: _.str.20, symObjAddr: 0x3740, symBinAddr: 0x100031940, symSize: 0x0 }
  - { offsetInCU: 0x230, offset: 0x2DD5D, size: 0x8, addend: 0x0, symName: _.str.21, symObjAddr: 0x3760, symBinAddr: 0x100031960, symSize: 0x0 }
  - { offsetInCU: 0x24D, offset: 0x2DD7A, size: 0x8, addend: 0x0, symName: _.str.22, symObjAddr: 0x3780, symBinAddr: 0x100031980, symSize: 0x0 }
  - { offsetInCU: 0x25E, offset: 0x2DD8B, size: 0x8, addend: 0x0, symName: _.str.23, symObjAddr: 0x37A0, symBinAddr: 0x1000319A0, symSize: 0x0 }
  - { offsetInCU: 0x27B, offset: 0x2DDA8, size: 0x8, addend: 0x0, symName: _.str.24, symObjAddr: 0x37E0, symBinAddr: 0x1000319E0, symSize: 0x0 }
  - { offsetInCU: 0x298, offset: 0x2DDC5, size: 0x8, addend: 0x0, symName: _.str.25, symObjAddr: 0x3860, symBinAddr: 0x100031A60, symSize: 0x0 }
  - { offsetInCU: 0x2A9, offset: 0x2DDD6, size: 0x8, addend: 0x0, symName: _.str.26, symObjAddr: 0x3880, symBinAddr: 0x100031A80, symSize: 0x0 }
  - { offsetInCU: 0x2BA, offset: 0x2DDE7, size: 0x8, addend: 0x0, symName: _.str.27, symObjAddr: 0x38A0, symBinAddr: 0x100031AA0, symSize: 0x0 }
  - { offsetInCU: 0x2CB, offset: 0x2DDF8, size: 0x8, addend: 0x0, symName: _.str.28, symObjAddr: 0x38C0, symBinAddr: 0x100031AC0, symSize: 0x0 }
  - { offsetInCU: 0x2B2C, offset: 0x30659, size: 0x8, addend: 0x0, symName: __ZNSt3__110__str_findB8ue170006IcmNS_11char_traitsIcEELm18446744073709551615EEET0_PKT_S3_S6_S3_S3_, symObjAddr: 0x23F0, symBinAddr: 0x10002B970, symSize: 0xF8 }
  - { offsetInCU: 0x2BD3, offset: 0x30700, size: 0x8, addend: 0x0, symName: __ZNSt3__118__search_substringB8ue170006IcNS_11char_traitsIcEEEEPKT_S5_S5_S5_S5_, symObjAddr: 0x2564, symBinAddr: 0x10002BA68, symSize: 0x3F8 }
  - { offsetInCU: 0x2C77, offset: 0x307A4, size: 0x8, addend: 0x0, symName: __ZNSt3__118__constexpr_memchrB8ue170006IKccEEPT_S3_T0_m, symObjAddr: 0x2A7C, symBinAddr: 0x10002BF80, symSize: 0x2C4 }
  - { offsetInCU: 0x4B51, offset: 0x3267E, size: 0x8, addend: 0x0, symName: __Z14test_WaterCellv, symObjAddr: 0x0, symBinAddr: 0x1000299E0, symSize: 0x1F1C }
  - { offsetInCU: 0x4F17, offset: 0x32A44, size: 0x8, addend: 0x0, symName: __ZNKSt3__112basic_stringIcNS_11char_traitsIcEENS_9allocatorIcEEE4findB8ue170006EPKcm, symObjAddr: 0x1F7C, symBinAddr: 0x10002B8FC, symSize: 0x74 }
  - { offsetInCU: 0x4F5C, offset: 0x32A89, size: 0x8, addend: 0x0, symName: __ZNSt3__111char_traitsIcE4findB8ue170006EPKcmRS2_, symObjAddr: 0x295C, symBinAddr: 0x10002BE60, symSize: 0xEC }
  - { offsetInCU: 0x4F9A, offset: 0x32AC7, size: 0x8, addend: 0x0, symName: __ZNSt3__111char_traitsIcE7compareB8ue170006EPKcS3_m, symObjAddr: 0x2A48, symBinAddr: 0x10002BF4C, symSize: 0x34 }
  - { offsetInCU: 0x3B, offset: 0x32B4F, size: 0x8, addend: 0x0, symName: ___func__._Z19test_StaticWallCellv, symObjAddr: 0x2680, symBinAddr: 0x100031AE0, symSize: 0x0 }
  - { offsetInCU: 0x6B, offset: 0x32B7F, size: 0x8, addend: 0x0, symName: _.str, symObjAddr: 0x26C0, symBinAddr: 0x100031B20, symSize: 0x0 }
  - { offsetInCU: 0x88, offset: 0x32B9C, size: 0x8, addend: 0x0, symName: _.str.1, symObjAddr: 0x2700, symBinAddr: 0x100031B60, symSize: 0x0 }
  - { offsetInCU: 0xA5, offset: 0x32BB9, size: 0x8, addend: 0x0, symName: _.str.2, symObjAddr: 0x2720, symBinAddr: 0x100031B80, symSize: 0x0 }
  - { offsetInCU: 0xB6, offset: 0x32BCA, size: 0x8, addend: 0x0, symName: _.str.3, symObjAddr: 0x2740, symBinAddr: 0x100031BA0, symSize: 0x0 }
  - { offsetInCU: 0xD3, offset: 0x32BE7, size: 0x8, addend: 0x0, symName: _.str.4, symObjAddr: 0x2760, symBinAddr: 0x100031BC0, symSize: 0x0 }
  - { offsetInCU: 0xE4, offset: 0x32BF8, size: 0x8, addend: 0x0, symName: _.str.5, symObjAddr: 0x27A0, symBinAddr: 0x100031C00, symSize: 0x0 }
  - { offsetInCU: 0x101, offset: 0x32C15, size: 0x8, addend: 0x0, symName: _.str.6, symObjAddr: 0x2820, symBinAddr: 0x100031C80, symSize: 0x0 }
  - { offsetInCU: 0x11E, offset: 0x32C32, size: 0x8, addend: 0x0, symName: _.str.7, symObjAddr: 0x2840, symBinAddr: 0x100031CA0, symSize: 0x0 }
  - { offsetInCU: 0x12F, offset: 0x32C43, size: 0x8, addend: 0x0, symName: _.str.8, symObjAddr: 0x2860, symBinAddr: 0x100031CC0, symSize: 0x0 }
  - { offsetInCU: 0x140, offset: 0x32C54, size: 0x8, addend: 0x0, symName: _.str.9, symObjAddr: 0x2880, symBinAddr: 0x100031CE0, symSize: 0x0 }
  - { offsetInCU: 0x15D, offset: 0x32C71, size: 0x8, addend: 0x0, symName: _.str.10, symObjAddr: 0x28C0, symBinAddr: 0x100031D20, symSize: 0x0 }
  - { offsetInCU: 0x17A, offset: 0x32C8E, size: 0x8, addend: 0x0, symName: _.str.11, symObjAddr: 0x2940, symBinAddr: 0x100031DA0, symSize: 0x0 }
  - { offsetInCU: 0x4817, offset: 0x3732B, size: 0x8, addend: 0x0, symName: __Z19test_StaticWallCellv, symObjAddr: 0x0, symBinAddr: 0x10002C2DC, symSize: 0x11F4 }
  - { offsetInCU: 0x3B, offset: 0x37666, size: 0x8, addend: 0x0, symName: ___func__._Z19test_MovingWallCellv, symObjAddr: 0x2DC0, symBinAddr: 0x100031DC0, symSize: 0x0 }
  - { offsetInCU: 0x6B, offset: 0x37696, size: 0x8, addend: 0x0, symName: _.str, symObjAddr: 0x2E00, symBinAddr: 0x100031E00, symSize: 0x0 }
  - { offsetInCU: 0x88, offset: 0x376B3, size: 0x8, addend: 0x0, symName: _.str.1, symObjAddr: 0x2E40, symBinAddr: 0x100031E40, symSize: 0x0 }
  - { offsetInCU: 0xA5, offset: 0x376D0, size: 0x8, addend: 0x0, symName: _.str.2, symObjAddr: 0x2E60, symBinAddr: 0x100031E60, symSize: 0x0 }
  - { offsetInCU: 0xB6, offset: 0x376E1, size: 0x8, addend: 0x0, symName: _.str.3, symObjAddr: 0x2E80, symBinAddr: 0x100031E80, symSize: 0x0 }
  - { offsetInCU: 0xC7, offset: 0x376F2, size: 0x8, addend: 0x0, symName: _.str.4, symObjAddr: 0x2EA0, symBinAddr: 0x100031EA0, symSize: 0x0 }
  - { offsetInCU: 0xD8, offset: 0x37703, size: 0x8, addend: 0x0, symName: _.str.5, symObjAddr: 0x2EC0, symBinAddr: 0x100031EC0, symSize: 0x0 }
  - { offsetInCU: 0xF5, offset: 0x37720, size: 0x8, addend: 0x0, symName: _.str.6, symObjAddr: 0x2EE0, symBinAddr: 0x100031EE0, symSize: 0x0 }
  - { offsetInCU: 0x106, offset: 0x37731, size: 0x8, addend: 0x0, symName: _.str.7, symObjAddr: 0x2F00, symBinAddr: 0x100031F00, symSize: 0x0 }
  - { offsetInCU: 0x117, offset: 0x37742, size: 0x8, addend: 0x0, symName: _.str.8, symObjAddr: 0x2F20, symBinAddr: 0x100031F20, symSize: 0x0 }
  - { offsetInCU: 0x128, offset: 0x37753, size: 0x8, addend: 0x0, symName: _.str.9, symObjAddr: 0x2F40, symBinAddr: 0x100031F40, symSize: 0x0 }
  - { offsetInCU: 0x145, offset: 0x37770, size: 0x8, addend: 0x0, symName: _.str.10, symObjAddr: 0x2F60, symBinAddr: 0x100031F60, symSize: 0x0 }
  - { offsetInCU: 0x156, offset: 0x37781, size: 0x8, addend: 0x0, symName: _.str.11, symObjAddr: 0x2FA0, symBinAddr: 0x100031FA0, symSize: 0x0 }
  - { offsetInCU: 0x173, offset: 0x3779E, size: 0x8, addend: 0x0, symName: _.str.12, symObjAddr: 0x3020, symBinAddr: 0x100032020, symSize: 0x0 }
  - { offsetInCU: 0x184, offset: 0x377AF, size: 0x8, addend: 0x0, symName: _.str.13, symObjAddr: 0x3040, symBinAddr: 0x100032040, symSize: 0x0 }
  - { offsetInCU: 0x195, offset: 0x377C0, size: 0x8, addend: 0x0, symName: _.str.14, symObjAddr: 0x3060, symBinAddr: 0x100032060, symSize: 0x0 }
  - { offsetInCU: 0x1A6, offset: 0x377D1, size: 0x8, addend: 0x0, symName: _.str.15, symObjAddr: 0x3080, symBinAddr: 0x100032080, symSize: 0x0 }
  - { offsetInCU: 0x1B7, offset: 0x377E2, size: 0x8, addend: 0x0, symName: _.str.16, symObjAddr: 0x30A0, symBinAddr: 0x1000320A0, symSize: 0x0 }
  - { offsetInCU: 0x1C8, offset: 0x377F3, size: 0x8, addend: 0x0, symName: _.str.17, symObjAddr: 0x30C0, symBinAddr: 0x1000320C0, symSize: 0x0 }
  - { offsetInCU: 0x1E5, offset: 0x37810, size: 0x8, addend: 0x0, symName: _.str.18, symObjAddr: 0x3100, symBinAddr: 0x100032100, symSize: 0x0 }
  - { offsetInCU: 0x202, offset: 0x3782D, size: 0x8, addend: 0x0, symName: _.str.19, symObjAddr: 0x3180, symBinAddr: 0x100032180, symSize: 0x0 }
  - { offsetInCU: 0x213, offset: 0x3783E, size: 0x8, addend: 0x0, symName: _.str.20, symObjAddr: 0x31A0, symBinAddr: 0x1000321A0, symSize: 0x0 }
  - { offsetInCU: 0x224, offset: 0x3784F, size: 0x8, addend: 0x0, symName: _.str.21, symObjAddr: 0x31C0, symBinAddr: 0x1000321C0, symSize: 0x0 }
  - { offsetInCU: 0x48C1, offset: 0x3BEEC, size: 0x8, addend: 0x0, symName: __Z19test_MovingWallCellv, symObjAddr: 0x0, symBinAddr: 0x10002D568, symSize: 0x18EC }
  - { offsetInCU: 0x26, offset: 0x3C2EC, size: 0x8, addend: 0x0, symName: __Z10test_Fieldv, symObjAddr: 0x0, symBinAddr: 0x10002EEEC, symSize: 0x5A0 }
  - { offsetInCU: 0x3C, offset: 0x3C302, size: 0x8, addend: 0x0, symName: ___func__._Z10test_Fieldv, symObjAddr: 0x6A0, symBinAddr: 0x1000321E0, symSize: 0x0 }
  - { offsetInCU: 0x6C, offset: 0x3C332, size: 0x8, addend: 0x0, symName: _.str, symObjAddr: 0x6C0, symBinAddr: 0x100032200, symSize: 0x0 }
  - { offsetInCU: 0x89, offset: 0x3C34F, size: 0x8, addend: 0x0, symName: _.str.1, symObjAddr: 0x6E0, symBinAddr: 0x100032220, symSize: 0x0 }
  - { offsetInCU: 0xA6, offset: 0x3C36C, size: 0x8, addend: 0x0, symName: _.str.2, symObjAddr: 0x740, symBinAddr: 0x100032280, symSize: 0x0 }
  - { offsetInCU: 0x524E, offset: 0x41514, size: 0x8, addend: 0x0, symName: __Z10test_Fieldv, symObjAddr: 0x0, symBinAddr: 0x10002EEEC, symSize: 0x5A0 }
  - { offsetInCU: 0x3B, offset: 0x41974, size: 0x8, addend: 0x0, symName: _.str, symObjAddr: 0x2320, symBinAddr: 0x1000322E0, symSize: 0x0 }
  - { offsetInCU: 0x6B, offset: 0x419A4, size: 0x8, addend: 0x0, symName: _.str.1, symObjAddr: 0x2360, symBinAddr: 0x100032320, symSize: 0x0 }
  - { offsetInCU: 0x88, offset: 0x419C1, size: 0x8, addend: 0x0, symName: _.str.2, symObjAddr: 0x23A0, symBinAddr: 0x100032360, symSize: 0x0 }
  - { offsetInCU: 0x99, offset: 0x419D2, size: 0x8, addend: 0x0, symName: _.str.3, symObjAddr: 0x23E0, symBinAddr: 0x1000323A0, symSize: 0x0 }
  - { offsetInCU: 0xB6, offset: 0x419EF, size: 0x8, addend: 0x0, symName: _.str.4, symObjAddr: 0x2420, symBinAddr: 0x1000323E0, symSize: 0x0 }
  - { offsetInCU: 0x297C, offset: 0x442B5, size: 0x8, addend: 0x0, symName: _main, symObjAddr: 0x0, symBinAddr: 0x10002F524, symSize: 0xC4 }
...
